
AVRASM ver. 2.1.30  C:\cvavr2\projects\scanner\List\sc.asm Thu Aug 15 14:29:56 2013

C:\cvavr2\projects\scanner\List\sc.asm(1051): warning: Register r4 already defined by the .DEF directive
C:\cvavr2\projects\scanner\List\sc.asm(1052): warning: Register r3 already defined by the .DEF directive
C:\cvavr2\projects\scanner\List\sc.asm(1053): warning: Register r6 already defined by the .DEF directive
C:\cvavr2\projects\scanner\List\sc.asm(1054): warning: Register r5 already defined by the .DEF directive
C:\cvavr2\projects\scanner\List\sc.asm(1055): warning: Register r8 already defined by the .DEF directive
C:\cvavr2\projects\scanner\List\sc.asm(1056): warning: Register r7 already defined by the .DEF directive
C:\cvavr2\projects\scanner\List\sc.asm(1057): warning: Register r9 already defined by the .DEF directive
C:\cvavr2\projects\scanner\List\sc.asm(1058): warning: Register r11 already defined by the .DEF directive
C:\cvavr2\projects\scanner\List\sc.asm(1059): warning: Register r14 already defined by the .DEF directive
C:\cvavr2\projects\scanner\List\sc.asm(1060): warning: Register r13 already defined by the .DEF directive
                 
                 
                 ;CodeVisionAVR C Compiler V2.04.4a Advanced
                 ;(C) Copyright 1998-2009 Pavel Haiduc, HP InfoTech s.r.l.
                 ;http://www.hpinfotech.com
                 
                 ;Chip type                : ATmega16
                 ;Program type             : Application
                 ;Clock frequency          : 12,000000 MHz
                 ;Memory model             : Small
                 ;Optimize for             : Speed
                 ;(s)printf features       : int
                 ;(s)scanf features        : int, width
                 ;External RAM size        : 0
                 ;Data Stack size          : 256 byte(s)
                 ;Heap size                : 0 byte(s)
                 ;Promote 'char' to 'int'  : Yes
                 ;'char' is unsigned       : Yes
                 ;8 bit enums              : Yes
                 ;global 'const' stored in FLASH: No
                 ;Enhanced core instructions    : On
                 ;Smart register allocation     : On
                 ;Automatic register allocation : On
                 
                 	#pragma AVRPART ADMIN PART_NAME ATmega16
                 	#pragma AVRPART MEMORY PROG_FLASH 16384
                 	#pragma AVRPART MEMORY EEPROM 512
                 	#pragma AVRPART MEMORY INT_SRAM SIZE 1024
                 	#pragma AVRPART MEMORY INT_SRAM START_ADDR 0x60
                 
                 	.LISTMAC
                 	.EQU UDRE=0x5
                 	.EQU RXC=0x7
                 	.EQU USR=0xB
                 	.EQU UDR=0xC
                 	.EQU SPSR=0xE
                 	.EQU SPDR=0xF
                 	.EQU EERE=0x0
                 	.EQU EEWE=0x1
                 	.EQU EEMWE=0x2
                 	.EQU EECR=0x1C
                 	.EQU EEDR=0x1D
                 	.EQU EEARL=0x1E
                 	.EQU EEARH=0x1F
                 	.EQU WDTCR=0x21
                 	.EQU MCUCR=0x35
                 	.EQU GICR=0x3B
                 	.EQU SPL=0x3D
                 	.EQU SPH=0x3E
                 	.EQU SREG=0x3F
                 
                 	.DEF R0X0=R0
                 	.DEF R0X1=R1
                 	.DEF R0X2=R2
                 	.DEF R0X3=R3
                 	.DEF R0X4=R4
                 	.DEF R0X5=R5
                 	.DEF R0X6=R6
                 	.DEF R0X7=R7
                 	.DEF R0X8=R8
                 	.DEF R0X9=R9
                 	.DEF R0XA=R10
                 	.DEF R0XB=R11
                 	.DEF R0XC=R12
                 	.DEF R0XD=R13
                 	.DEF R0XE=R14
                 	.DEF R0XF=R15
                 	.DEF R0X10=R16
                 	.DEF R0X11=R17
                 	.DEF R0X12=R18
                 	.DEF R0X13=R19
                 	.DEF R0X14=R20
                 	.DEF R0X15=R21
                 	.DEF R0X16=R22
                 	.DEF R0X17=R23
                 	.DEF R0X18=R24
                 	.DEF R0X19=R25
                 	.DEF R0X1A=R26
                 	.DEF R0X1B=R27
                 	.DEF R0X1C=R28
                 	.DEF R0X1D=R29
                 	.DEF R0X1E=R30
                 	.DEF R0X1F=R31
                 
                 	.MACRO __CPD1N
                 	CPI  R30,LOW(@0)
                 	LDI  R26,HIGH(@0)
                 	CPC  R31,R26
                 	LDI  R26,BYTE3(@0)
                 	CPC  R22,R26
                 	LDI  R26,BYTE4(@0)
                 	CPC  R23,R26
                 	.ENDM
                 
                 	.MACRO __CPD2N
                 	CPI  R26,LOW(@0)
                 	LDI  R30,HIGH(@0)
                 	CPC  R27,R30
                 	LDI  R30,BYTE3(@0)
                 	CPC  R24,R30
                 	LDI  R30,BYTE4(@0)
                 	CPC  R25,R30
                 	.ENDM
                 
                 	.MACRO __CPWRR
                 	CP   R@0,R@2
                 	CPC  R@1,R@3
                 	.ENDM
                 
                 	.MACRO __CPWRN
                 	CPI  R@0,LOW(@2)
                 	LDI  R30,HIGH(@2)
                 	CPC  R@1,R30
                 	.ENDM
                 
                 	.MACRO __ADDB1MN
                 	SUBI R30,LOW(-@0-(@1))
                 	.ENDM
                 
                 	.MACRO __ADDB2MN
                 	SUBI R26,LOW(-@0-(@1))
                 	.ENDM
                 
                 	.MACRO __ADDW1MN
                 	SUBI R30,LOW(-@0-(@1))
                 	SBCI R31,HIGH(-@0-(@1))
                 	.ENDM
                 
                 	.MACRO __ADDW2MN
                 	SUBI R26,LOW(-@0-(@1))
                 	SBCI R27,HIGH(-@0-(@1))
                 	.ENDM
                 
                 	.MACRO __ADDW1FN
                 	SUBI R30,LOW(-2*@0-(@1))
                 	SBCI R31,HIGH(-2*@0-(@1))
                 	.ENDM
                 
                 	.MACRO __ADDD1FN
                 	SUBI R30,LOW(-2*@0-(@1))
                 	SBCI R31,HIGH(-2*@0-(@1))
                 	SBCI R22,BYTE3(-2*@0-(@1))
                 	.ENDM
                 
                 	.MACRO __ADDD1N
                 	SUBI R30,LOW(-@0)
                 	SBCI R31,HIGH(-@0)
                 	SBCI R22,BYTE3(-@0)
                 	SBCI R23,BYTE4(-@0)
                 	.ENDM
                 
                 	.MACRO __ADDD2N
                 	SUBI R26,LOW(-@0)
                 	SBCI R27,HIGH(-@0)
                 	SBCI R24,BYTE3(-@0)
                 	SBCI R25,BYTE4(-@0)
                 	.ENDM
                 
                 	.MACRO __SUBD1N
                 	SUBI R30,LOW(@0)
                 	SBCI R31,HIGH(@0)
                 	SBCI R22,BYTE3(@0)
                 	SBCI R23,BYTE4(@0)
                 	.ENDM
                 
                 	.MACRO __SUBD2N
                 	SUBI R26,LOW(@0)
                 	SBCI R27,HIGH(@0)
                 	SBCI R24,BYTE3(@0)
                 	SBCI R25,BYTE4(@0)
                 	.ENDM
                 
                 	.MACRO __ANDBMNN
                 	LDS  R30,@0+(@1)
                 	ANDI R30,LOW(@2)
                 	STS  @0+(@1),R30
                 	.ENDM
                 
                 	.MACRO __ANDWMNN
                 	LDS  R30,@0+(@1)
                 	ANDI R30,LOW(@2)
                 	STS  @0+(@1),R30
                 	LDS  R30,@0+(@1)+1
                 	ANDI R30,HIGH(@2)
                 	STS  @0+(@1)+1,R30
                 	.ENDM
                 
                 	.MACRO __ANDD1N
                 	ANDI R30,LOW(@0)
                 	ANDI R31,HIGH(@0)
                 	ANDI R22,BYTE3(@0)
                 	ANDI R23,BYTE4(@0)
                 	.ENDM
                 
                 	.MACRO __ANDD2N
                 	ANDI R26,LOW(@0)
                 	ANDI R27,HIGH(@0)
                 	ANDI R24,BYTE3(@0)
                 	ANDI R25,BYTE4(@0)
                 	.ENDM
                 
                 	.MACRO __ORBMNN
                 	LDS  R30,@0+(@1)
                 	ORI  R30,LOW(@2)
                 	STS  @0+(@1),R30
                 	.ENDM
                 
                 	.MACRO __ORWMNN
                 	LDS  R30,@0+(@1)
                 	ORI  R30,LOW(@2)
                 	STS  @0+(@1),R30
                 	LDS  R30,@0+(@1)+1
                 	ORI  R30,HIGH(@2)
                 	STS  @0+(@1)+1,R30
                 	.ENDM
                 
                 	.MACRO __ORD1N
                 	ORI  R30,LOW(@0)
                 	ORI  R31,HIGH(@0)
                 	ORI  R22,BYTE3(@0)
                 	ORI  R23,BYTE4(@0)
                 	.ENDM
                 
                 	.MACRO __ORD2N
                 	ORI  R26,LOW(@0)
                 	ORI  R27,HIGH(@0)
                 	ORI  R24,BYTE3(@0)
                 	ORI  R25,BYTE4(@0)
                 	.ENDM
                 
                 	.MACRO __DELAY_USB
                 	LDI  R24,LOW(@0)
                 __DELAY_USB_LOOP:
                 	DEC  R24
                 	BRNE __DELAY_USB_LOOP
                 	.ENDM
                 
                 	.MACRO __DELAY_USW
                 	LDI  R24,LOW(@0)
                 	LDI  R25,HIGH(@0)
                 __DELAY_USW_LOOP:
                 	SBIW R24,1
                 	BRNE __DELAY_USW_LOOP
                 	.ENDM
                 
                 	.MACRO __GETD1S
                 	LDD  R30,Y+@0
                 	LDD  R31,Y+@0+1
                 	LDD  R22,Y+@0+2
                 	LDD  R23,Y+@0+3
                 	.ENDM
                 
                 	.MACRO __GETD2S
                 	LDD  R26,Y+@0
                 	LDD  R27,Y+@0+1
                 	LDD  R24,Y+@0+2
                 	LDD  R25,Y+@0+3
                 	.ENDM
                 
                 	.MACRO __PUTD1S
                 	STD  Y+@0,R30
                 	STD  Y+@0+1,R31
                 	STD  Y+@0+2,R22
                 	STD  Y+@0+3,R23
                 	.ENDM
                 
                 	.MACRO __PUTD2S
                 	STD  Y+@0,R26
                 	STD  Y+@0+1,R27
                 	STD  Y+@0+2,R24
                 	STD  Y+@0+3,R25
                 	.ENDM
                 
                 	.MACRO __PUTDZ2
                 	STD  Z+@0,R26
                 	STD  Z+@0+1,R27
                 	STD  Z+@0+2,R24
                 	STD  Z+@0+3,R25
                 	.ENDM
                 
                 	.MACRO __CLRD1S
                 	STD  Y+@0,R30
                 	STD  Y+@0+1,R30
                 	STD  Y+@0+2,R30
                 	STD  Y+@0+3,R30
                 	.ENDM
                 
                 	.MACRO __POINTB1MN
                 	LDI  R30,LOW(@0+(@1))
                 	.ENDM
                 
                 	.MACRO __POINTW1MN
                 	LDI  R30,LOW(@0+(@1))
                 	LDI  R31,HIGH(@0+(@1))
                 	.ENDM
                 
                 	.MACRO __POINTD1M
                 	LDI  R30,LOW(@0)
                 	LDI  R31,HIGH(@0)
                 	LDI  R22,BYTE3(@0)
                 	LDI  R23,BYTE4(@0)
                 	.ENDM
                 
                 	.MACRO __POINTW1FN
                 	LDI  R30,LOW(2*@0+(@1))
                 	LDI  R31,HIGH(2*@0+(@1))
                 	.ENDM
                 
                 	.MACRO __POINTD1FN
                 	LDI  R30,LOW(2*@0+(@1))
                 	LDI  R31,HIGH(2*@0+(@1))
                 	LDI  R22,BYTE3(2*@0+(@1))
                 	LDI  R23,BYTE4(2*@0+(@1))
                 	.ENDM
                 
                 	.MACRO __POINTB2MN
                 	LDI  R26,LOW(@0+(@1))
                 	.ENDM
                 
                 	.MACRO __POINTW2MN
                 	LDI  R26,LOW(@0+(@1))
                 	LDI  R27,HIGH(@0+(@1))
                 	.ENDM
                 
                 	.MACRO __POINTBRM
                 	LDI  R@0,LOW(@1)
                 	.ENDM
                 
                 	.MACRO __POINTWRM
                 	LDI  R@0,LOW(@2)
                 	LDI  R@1,HIGH(@2)
                 	.ENDM
                 
                 	.MACRO __POINTBRMN
                 	LDI  R@0,LOW(@1+(@2))
                 	.ENDM
                 
                 	.MACRO __POINTWRMN
                 	LDI  R@0,LOW(@2+(@3))
                 	LDI  R@1,HIGH(@2+(@3))
                 	.ENDM
                 
                 	.MACRO __POINTWRFN
                 	LDI  R@0,LOW(@2*2+(@3))
                 	LDI  R@1,HIGH(@2*2+(@3))
                 	.ENDM
                 
                 	.MACRO __GETD1N
                 	LDI  R30,LOW(@0)
                 	LDI  R31,HIGH(@0)
                 	LDI  R22,BYTE3(@0)
                 	LDI  R23,BYTE4(@0)
                 	.ENDM
                 
                 	.MACRO __GETD2N
                 	LDI  R26,LOW(@0)
                 	LDI  R27,HIGH(@0)
                 	LDI  R24,BYTE3(@0)
                 	LDI  R25,BYTE4(@0)
                 	.ENDM
                 
                 	.MACRO __GETB1MN
                 	LDS  R30,@0+(@1)
                 	.ENDM
                 
                 	.MACRO __GETB1HMN
                 	LDS  R31,@0+(@1)
                 	.ENDM
                 
                 	.MACRO __GETW1MN
                 	LDS  R30,@0+(@1)
                 	LDS  R31,@0+(@1)+1
                 	.ENDM
                 
                 	.MACRO __GETD1MN
                 	LDS  R30,@0+(@1)
                 	LDS  R31,@0+(@1)+1
                 	LDS  R22,@0+(@1)+2
                 	LDS  R23,@0+(@1)+3
                 	.ENDM
                 
                 	.MACRO __GETBRMN
                 	LDS  R@0,@1+(@2)
                 	.ENDM
                 
                 	.MACRO __GETWRMN
                 	LDS  R@0,@2+(@3)
                 	LDS  R@1,@2+(@3)+1
                 	.ENDM
                 
                 	.MACRO __GETWRZ
                 	LDD  R@0,Z+@2
                 	LDD  R@1,Z+@2+1
                 	.ENDM
                 
                 	.MACRO __GETD2Z
                 	LDD  R26,Z+@0
                 	LDD  R27,Z+@0+1
                 	LDD  R24,Z+@0+2
                 	LDD  R25,Z+@0+3
                 	.ENDM
                 
                 	.MACRO __GETB2MN
                 	LDS  R26,@0+(@1)
                 	.ENDM
                 
                 	.MACRO __GETW2MN
                 	LDS  R26,@0+(@1)
                 	LDS  R27,@0+(@1)+1
                 	.ENDM
                 
                 	.MACRO __GETD2MN
                 	LDS  R26,@0+(@1)
                 	LDS  R27,@0+(@1)+1
                 	LDS  R24,@0+(@1)+2
                 	LDS  R25,@0+(@1)+3
                 	.ENDM
                 
                 	.MACRO __PUTB1MN
                 	STS  @0+(@1),R30
                 	.ENDM
                 
                 	.MACRO __PUTW1MN
                 	STS  @0+(@1),R30
                 	STS  @0+(@1)+1,R31
                 	.ENDM
                 
                 	.MACRO __PUTD1MN
                 	STS  @0+(@1),R30
                 	STS  @0+(@1)+1,R31
                 	STS  @0+(@1)+2,R22
                 	STS  @0+(@1)+3,R23
                 	.ENDM
                 
                 	.MACRO __PUTB1EN
                 	LDI  R26,LOW(@0+(@1))
                 	LDI  R27,HIGH(@0+(@1))
                 	CALL __EEPROMWRB
                 	.ENDM
                 
                 	.MACRO __PUTW1EN
                 	LDI  R26,LOW(@0+(@1))
                 	LDI  R27,HIGH(@0+(@1))
                 	CALL __EEPROMWRW
                 	.ENDM
                 
                 	.MACRO __PUTD1EN
                 	LDI  R26,LOW(@0+(@1))
                 	LDI  R27,HIGH(@0+(@1))
                 	CALL __EEPROMWRD
                 	.ENDM
                 
                 	.MACRO __PUTBR0MN
                 	STS  @0+(@1),R0
                 	.ENDM
                 
                 	.MACRO __PUTBMRN
                 	STS  @0+(@1),R@2
                 	.ENDM
                 
                 	.MACRO __PUTWMRN
                 	STS  @0+(@1),R@2
                 	STS  @0+(@1)+1,R@3
                 	.ENDM
                 
                 	.MACRO __PUTBZR
                 	STD  Z+@1,R@0
                 	.ENDM
                 
                 	.MACRO __PUTWZR
                 	STD  Z+@2,R@0
                 	STD  Z+@2+1,R@1
                 	.ENDM
                 
                 	.MACRO __GETW1R
                 	MOV  R30,R@0
                 	MOV  R31,R@1
                 	.ENDM
                 
                 	.MACRO __GETW2R
                 	MOV  R26,R@0
                 	MOV  R27,R@1
                 	.ENDM
                 
                 	.MACRO __GETWRN
                 	LDI  R@0,LOW(@2)
                 	LDI  R@1,HIGH(@2)
                 	.ENDM
                 
                 	.MACRO __PUTW1R
                 	MOV  R@0,R30
                 	MOV  R@1,R31
                 	.ENDM
                 
                 	.MACRO __PUTW2R
                 	MOV  R@0,R26
                 	MOV  R@1,R27
                 	.ENDM
                 
                 	.MACRO __ADDWRN
                 	SUBI R@0,LOW(-@2)
                 	SBCI R@1,HIGH(-@2)
                 	.ENDM
                 
                 	.MACRO __ADDWRR
                 	ADD  R@0,R@2
                 	ADC  R@1,R@3
                 	.ENDM
                 
                 	.MACRO __SUBWRN
                 	SUBI R@0,LOW(@2)
                 	SBCI R@1,HIGH(@2)
                 	.ENDM
                 
                 	.MACRO __SUBWRR
                 	SUB  R@0,R@2
                 	SBC  R@1,R@3
                 	.ENDM
                 
                 	.MACRO __ANDWRN
                 	ANDI R@0,LOW(@2)
                 	ANDI R@1,HIGH(@2)
                 	.ENDM
                 
                 	.MACRO __ANDWRR
                 	AND  R@0,R@2
                 	AND  R@1,R@3
                 	.ENDM
                 
                 	.MACRO __ORWRN
                 	ORI  R@0,LOW(@2)
                 	ORI  R@1,HIGH(@2)
                 	.ENDM
                 
                 	.MACRO __ORWRR
                 	OR   R@0,R@2
                 	OR   R@1,R@3
                 	.ENDM
                 
                 	.MACRO __EORWRR
                 	EOR  R@0,R@2
                 	EOR  R@1,R@3
                 	.ENDM
                 
                 	.MACRO __GETWRS
                 	LDD  R@0,Y+@2
                 	LDD  R@1,Y+@2+1
                 	.ENDM
                 
                 	.MACRO __PUTBSR
                 	STD  Y+@1,R@0
                 	.ENDM
                 
                 	.MACRO __PUTWSR
                 	STD  Y+@2,R@0
                 	STD  Y+@2+1,R@1
                 	.ENDM
                 
                 	.MACRO __MOVEWRR
                 	MOV  R@0,R@2
                 	MOV  R@1,R@3
                 	.ENDM
                 
                 	.MACRO __INWR
                 	IN   R@0,@2
                 	IN   R@1,@2+1
                 	.ENDM
                 
                 	.MACRO __OUTWR
                 	OUT  @2+1,R@1
                 	OUT  @2,R@0
                 	.ENDM
                 
                 	.MACRO __CALL1MN
                 	LDS  R30,@0+(@1)
                 	LDS  R31,@0+(@1)+1
                 	ICALL
                 	.ENDM
                 
                 	.MACRO __CALL1FN
                 	LDI  R30,LOW(2*@0+(@1))
                 	LDI  R31,HIGH(2*@0+(@1))
                 	CALL __GETW1PF
                 	ICALL
                 	.ENDM
                 
                 	.MACRO __CALL2EN
                 	LDI  R26,LOW(@0+(@1))
                 	LDI  R27,HIGH(@0+(@1))
                 	CALL __EEPROMRDW
                 	ICALL
                 	.ENDM
                 
                 	.MACRO __GETW1STACK
                 	IN   R26,SPL
                 	IN   R27,SPH
                 	ADIW R26,@0+1
                 	LD   R30,X+
                 	LD   R31,X
                 	.ENDM
                 
                 	.MACRO __GETD1STACK
                 	IN   R26,SPL
                 	IN   R27,SPH
                 	ADIW R26,@0+1
                 	LD   R30,X+
                 	LD   R31,X+
                 	LD   R22,X
                 	.ENDM
                 
                 	.MACRO __NBST
                 	BST  R@0,@1
                 	IN   R30,SREG
                 	LDI  R31,0x40
                 	EOR  R30,R31
                 	OUT  SREG,R30
                 	.ENDM
                 
                 
                 	.MACRO __PUTB1SN
                 	LDD  R26,Y+@0
                 	LDD  R27,Y+@0+1
                 	SUBI R26,LOW(-@1)
                 	SBCI R27,HIGH(-@1)
                 	ST   X,R30
                 	.ENDM
                 
                 	.MACRO __PUTW1SN
                 	LDD  R26,Y+@0
                 	LDD  R27,Y+@0+1
                 	SUBI R26,LOW(-@1)
                 	SBCI R27,HIGH(-@1)
                 	ST   X+,R30
                 	ST   X,R31
                 	.ENDM
                 
                 	.MACRO __PUTD1SN
                 	LDD  R26,Y+@0
                 	LDD  R27,Y+@0+1
                 	SUBI R26,LOW(-@1)
                 	SBCI R27,HIGH(-@1)
                 	CALL __PUTDP1
                 	.ENDM
                 
                 	.MACRO __PUTB1SNS
                 	LDD  R26,Y+@0
                 	LDD  R27,Y+@0+1
                 	ADIW R26,@1
                 	ST   X,R30
                 	.ENDM
                 
                 	.MACRO __PUTW1SNS
                 	LDD  R26,Y+@0
                 	LDD  R27,Y+@0+1
                 	ADIW R26,@1
                 	ST   X+,R30
                 	ST   X,R31
                 	.ENDM
                 
                 	.MACRO __PUTD1SNS
                 	LDD  R26,Y+@0
                 	LDD  R27,Y+@0+1
                 	ADIW R26,@1
                 	CALL __PUTDP1
                 	.ENDM
                 
                 	.MACRO __PUTB1PMN
                 	LDS  R26,@0
                 	LDS  R27,@0+1
                 	SUBI R26,LOW(-@1)
                 	SBCI R27,HIGH(-@1)
                 	ST   X,R30
                 	.ENDM
                 
                 	.MACRO __PUTW1PMN
                 	LDS  R26,@0
                 	LDS  R27,@0+1
                 	SUBI R26,LOW(-@1)
                 	SBCI R27,HIGH(-@1)
                 	ST   X+,R30
                 	ST   X,R31
                 	.ENDM
                 
                 	.MACRO __PUTD1PMN
                 	LDS  R26,@0
                 	LDS  R27,@0+1
                 	SUBI R26,LOW(-@1)
                 	SBCI R27,HIGH(-@1)
                 	CALL __PUTDP1
                 	.ENDM
                 
                 	.MACRO __PUTB1PMNS
                 	LDS  R26,@0
                 	LDS  R27,@0+1
                 	ADIW R26,@1
                 	ST   X,R30
                 	.ENDM
                 
                 	.MACRO __PUTW1PMNS
                 	LDS  R26,@0
                 	LDS  R27,@0+1
                 	ADIW R26,@1
                 	ST   X+,R30
                 	ST   X,R31
                 	.ENDM
                 
                 	.MACRO __PUTD1PMNS
                 	LDS  R26,@0
                 	LDS  R27,@0+1
                 	ADIW R26,@1
                 	CALL __PUTDP1
                 	.ENDM
                 
                 	.MACRO __PUTB1RN
                 	MOVW R26,R@0
                 	SUBI R26,LOW(-@1)
                 	SBCI R27,HIGH(-@1)
                 	ST   X,R30
                 	.ENDM
                 
                 	.MACRO __PUTW1RN
                 	MOVW R26,R@0
                 	SUBI R26,LOW(-@1)
                 	SBCI R27,HIGH(-@1)
                 	ST   X+,R30
                 	ST   X,R31
                 	.ENDM
                 
                 	.MACRO __PUTD1RN
                 	MOVW R26,R@0
                 	SUBI R26,LOW(-@1)
                 	SBCI R27,HIGH(-@1)
                 	CALL __PUTDP1
                 	.ENDM
                 
                 	.MACRO __PUTB1RNS
                 	MOVW R26,R@0
                 	ADIW R26,@1
                 	ST   X,R30
                 	.ENDM
                 
                 	.MACRO __PUTW1RNS
                 	MOVW R26,R@0
                 	ADIW R26,@1
                 	ST   X+,R30
                 	ST   X,R31
                 	.ENDM
                 
                 	.MACRO __PUTD1RNS
                 	MOVW R26,R@0
                 	ADIW R26,@1
                 	CALL __PUTDP1
                 	.ENDM
                 
                 	.MACRO __PUTB1RON
                 	MOV  R26,R@0
                 	MOV  R27,R@1
                 	SUBI R26,LOW(-@2)
                 	SBCI R27,HIGH(-@2)
                 	ST   X,R30
                 	.ENDM
                 
                 	.MACRO __PUTW1RON
                 	MOV  R26,R@0
                 	MOV  R27,R@1
                 	SUBI R26,LOW(-@2)
                 	SBCI R27,HIGH(-@2)
                 	ST   X+,R30
                 	ST   X,R31
                 	.ENDM
                 
                 	.MACRO __PUTD1RON
                 	MOV  R26,R@0
                 	MOV  R27,R@1
                 	SUBI R26,LOW(-@2)
                 	SBCI R27,HIGH(-@2)
                 	CALL __PUTDP1
                 	.ENDM
                 
                 	.MACRO __PUTB1RONS
                 	MOV  R26,R@0
                 	MOV  R27,R@1
                 	ADIW R26,@2
                 	ST   X,R30
                 	.ENDM
                 
                 	.MACRO __PUTW1RONS
                 	MOV  R26,R@0
                 	MOV  R27,R@1
                 	ADIW R26,@2
                 	ST   X+,R30
                 	ST   X,R31
                 	.ENDM
                 
                 	.MACRO __PUTD1RONS
                 	MOV  R26,R@0
                 	MOV  R27,R@1
                 	ADIW R26,@2
                 	CALL __PUTDP1
                 	.ENDM
                 
                 
                 	.MACRO __GETB1SX
                 	MOVW R30,R28
                 	SUBI R30,LOW(-@0)
                 	SBCI R31,HIGH(-@0)
                 	LD   R30,Z
                 	.ENDM
                 
                 	.MACRO __GETB1HSX
                 	MOVW R30,R28
                 	SUBI R30,LOW(-@0)
                 	SBCI R31,HIGH(-@0)
                 	LD   R31,Z
                 	.ENDM
                 
                 	.MACRO __GETW1SX
                 	MOVW R30,R28
                 	SUBI R30,LOW(-@0)
                 	SBCI R31,HIGH(-@0)
                 	LD   R0,Z+
                 	LD   R31,Z
                 	MOV  R30,R0
                 	.ENDM
                 
                 	.MACRO __GETD1SX
                 	MOVW R30,R28
                 	SUBI R30,LOW(-@0)
                 	SBCI R31,HIGH(-@0)
                 	LD   R0,Z+
                 	LD   R1,Z+
                 	LD   R22,Z+
                 	LD   R23,Z
                 	MOVW R30,R0
                 	.ENDM
                 
                 	.MACRO __GETB2SX
                 	MOVW R26,R28
                 	SUBI R26,LOW(-@0)
                 	SBCI R27,HIGH(-@0)
                 	LD   R26,X
                 	.ENDM
                 
                 	.MACRO __GETW2SX
                 	MOVW R26,R28
                 	SUBI R26,LOW(-@0)
                 	SBCI R27,HIGH(-@0)
                 	LD   R0,X+
                 	LD   R27,X
                 	MOV  R26,R0
                 	.ENDM
                 
                 	.MACRO __GETD2SX
                 	MOVW R26,R28
                 	SUBI R26,LOW(-@0)
                 	SBCI R27,HIGH(-@0)
                 	LD   R0,X+
                 	LD   R1,X+
                 	LD   R24,X+
                 	LD   R25,X
                 	MOVW R26,R0
                 	.ENDM
                 
                 	.MACRO __GETBRSX
                 	MOVW R30,R28
                 	SUBI R30,LOW(-@1)
                 	SBCI R31,HIGH(-@1)
                 	LD   R@0,Z
                 	.ENDM
                 
                 	.MACRO __GETWRSX
                 	MOVW R30,R28
                 	SUBI R30,LOW(-@2)
                 	SBCI R31,HIGH(-@2)
                 	LD   R@0,Z+
                 	LD   R@1,Z
                 	.ENDM
                 
                 	.MACRO __GETBRSX2
                 	MOVW R26,R28
                 	SUBI R26,LOW(-@1)
                 	SBCI R27,HIGH(-@1)
                 	LD   R@0,X
                 	.ENDM
                 
                 	.MACRO __GETWRSX2
                 	MOVW R26,R28
                 	SUBI R26,LOW(-@2)
                 	SBCI R27,HIGH(-@2)
                 	LD   R@0,X+
                 	LD   R@1,X
                 	.ENDM
                 
                 	.MACRO __LSLW8SX
                 	MOVW R30,R28
                 	SUBI R30,LOW(-@0)
                 	SBCI R31,HIGH(-@0)
                 	LD   R31,Z
                 	CLR  R30
                 	.ENDM
                 
                 	.MACRO __PUTB1SX
                 	MOVW R26,R28
                 	SUBI R26,LOW(-@0)
                 	SBCI R27,HIGH(-@0)
                 	ST   X,R30
                 	.ENDM
                 
                 	.MACRO __PUTW1SX
                 	MOVW R26,R28
                 	SUBI R26,LOW(-@0)
                 	SBCI R27,HIGH(-@0)
                 	ST   X+,R30
                 	ST   X,R31
                 	.ENDM
                 
                 	.MACRO __PUTD1SX
                 	MOVW R26,R28
                 	SUBI R26,LOW(-@0)
                 	SBCI R27,HIGH(-@0)
                 	ST   X+,R30
                 	ST   X+,R31
                 	ST   X+,R22
                 	ST   X,R23
                 	.ENDM
                 
                 	.MACRO __CLRW1SX
                 	MOVW R26,R28
                 	SUBI R26,LOW(-@0)
                 	SBCI R27,HIGH(-@0)
                 	ST   X+,R30
                 	ST   X,R30
                 	.ENDM
                 
                 	.MACRO __CLRD1SX
                 	MOVW R26,R28
                 	SUBI R26,LOW(-@0)
                 	SBCI R27,HIGH(-@0)
                 	ST   X+,R30
                 	ST   X+,R30
                 	ST   X+,R30
                 	ST   X,R30
                 	.ENDM
                 
                 	.MACRO __PUTB2SX
                 	MOVW R30,R28
                 	SUBI R30,LOW(-@0)
                 	SBCI R31,HIGH(-@0)
                 	ST   Z,R26
                 	.ENDM
                 
                 	.MACRO __PUTW2SX
                 	MOVW R30,R28
                 	SUBI R30,LOW(-@0)
                 	SBCI R31,HIGH(-@0)
                 	ST   Z+,R26
                 	ST   Z,R27
                 	.ENDM
                 
                 	.MACRO __PUTD2SX
                 	MOVW R30,R28
                 	SUBI R30,LOW(-@0)
                 	SBCI R31,HIGH(-@0)
                 	ST   Z+,R26
                 	ST   Z+,R27
                 	ST   Z+,R24
                 	ST   Z,R25
                 	.ENDM
                 
                 	.MACRO __PUTBSRX
                 	MOVW R30,R28
                 	SUBI R30,LOW(-@1)
                 	SBCI R31,HIGH(-@1)
                 	ST   Z,R@0
                 	.ENDM
                 
                 	.MACRO __PUTWSRX
                 	MOVW R30,R28
                 	SUBI R30,LOW(-@2)
                 	SBCI R31,HIGH(-@2)
                 	ST   Z+,R@0
                 	ST   Z,R@1
                 	.ENDM
                 
                 	.MACRO __PUTB1SNX
                 	MOVW R26,R28
                 	SUBI R26,LOW(-@0)
                 	SBCI R27,HIGH(-@0)
                 	LD   R0,X+
                 	LD   R27,X
                 	MOV  R26,R0
                 	SUBI R26,LOW(-@1)
                 	SBCI R27,HIGH(-@1)
                 	ST   X,R30
                 	.ENDM
                 
                 	.MACRO __PUTW1SNX
                 	MOVW R26,R28
                 	SUBI R26,LOW(-@0)
                 	SBCI R27,HIGH(-@0)
                 	LD   R0,X+
                 	LD   R27,X
                 	MOV  R26,R0
                 	SUBI R26,LOW(-@1)
                 	SBCI R27,HIGH(-@1)
                 	ST   X+,R30
                 	ST   X,R31
                 	.ENDM
                 
                 	.MACRO __PUTD1SNX
                 	MOVW R26,R28
                 	SUBI R26,LOW(-@0)
                 	SBCI R27,HIGH(-@0)
                 	LD   R0,X+
                 	LD   R27,X
                 	MOV  R26,R0
                 	SUBI R26,LOW(-@1)
                 	SBCI R27,HIGH(-@1)
                 	ST   X+,R30
                 	ST   X+,R31
                 	ST   X+,R22
                 	ST   X,R23
                 	.ENDM
                 
                 	.MACRO __MULBRR
                 	MULS R@0,R@1
                 	MOVW R30,R0
                 	.ENDM
                 
                 	.MACRO __MULBRRU
                 	MUL  R@0,R@1
                 	MOVW R30,R0
                 	.ENDM
                 
                 	.MACRO __MULBRR0
                 	MULS R@0,R@1
                 	.ENDM
                 
                 	.MACRO __MULBRRU0
                 	MUL  R@0,R@1
                 	.ENDM
                 
                 	.MACRO __MULBNWRU
                 	LDI  R26,@2
                 	MUL  R26,R@0
                 	MOVW R30,R0
                 	MUL  R26,R@1
                 	ADD  R31,R0
                 	.ENDM
                 
                 ;NAME DEFINITIONS FOR GLOBAL VARIABLES ALLOCATED TO REGISTERS
                 	.DEF _val1=R4
                 	.DEF _val2=R3
                 	.DEF _val3=R6
                 	.DEF _val4=R5
                 	.DEF _val5=R8
                 	.DEF _current_pattern=R7
                 	.DEF _block=R9
                 	.DEF _addr=R11
                 	.DEF __e_read=R14
                 	.DEF _i=R13
                 
                 	.CSEG
                 	.ORG 0x00
                 
                 ;INTERRUPT VECTORS
000000 940c 0123 	JMP  __RESET
000002 940c 066f 	JMP  _ext_int0_isr
000004 940c 0000 	JMP  0x00
000006 940c 0000 	JMP  0x00
000008 940c 0000 	JMP  0x00
00000a 940c 0000 	JMP  0x00
00000c 940c 0940 	JMP  _timer1_compa_isr
00000e 940c 0000 	JMP  0x00
000010 940c 0000 	JMP  0x00
000012 940c 0918 	JMP  _timer0_ovf_isr
000014 940c 0000 	JMP  0x00
000016 940c 0000 	JMP  0x00
000018 940c 0000 	JMP  0x00
00001a 940c 0000 	JMP  0x00
00001c 940c 0000 	JMP  0x00
00001e 940c 0000 	JMP  0x00
000020 940c 0000 	JMP  0x00
000022 940c 0000 	JMP  0x00
000024 940c 0000 	JMP  0x00
000026 940c 0000 	JMP  0x00
000028 940c 0000 	JMP  0x00
                 
                 _v1:
00002a 100e
00002b 1211
00002c 1413
00002d 1615      	.DB  0xE,0x10,0x11,0x12,0x13,0x14,0x15,0x16
00002e 1617
00002f 1415
000030 1213
000031 0011      	.DB  0x17,0x16,0x15,0x14,0x13,0x12,0x11,0x0
000032 0000
000033 0000
000034 0000
000035 0000      	.DB  0x0,0x0,0x0,0x0,0x0,0x0,0x0,0x0
000036 0000
000037 0000
000038 0000
C:\cvavr2\projects\scanner\List\sc.asm(1092): warning: .cseg .db misalignment - padding zero byte
000039 0000      	.DB  0x0,0x0,0x0,0x0,0x0,0x0,0x0
                 _v2:
00003a 100e
00003b 1312
00003c 1714
00003d 0a09      	.DB  0xE,0x10,0x12,0x13,0x14,0x17,0x9,0xA
00003e 0a0b
00003f 1709
000040 1314
000041 0012      	.DB  0xB,0xA,0x9,0x17,0x14,0x13,0x12,0x0
000042 0000
000043 0000
000044 0000
000045 0000      	.DB  0x0,0x0,0x0,0x0,0x0,0x0,0x0,0x0
000046 0000
000047 0000
000048 0000
C:\cvavr2\projects\scanner\List\sc.asm(1097): warning: .cseg .db misalignment - padding zero byte
000049 0000      	.DB  0x0,0x0,0x0,0x0,0x0,0x0,0x0
                 _v3:
00004a 110e
00004b 1513
00004c 0a08
00004d 0c0b      	.DB  0xE,0x11,0x13,0x15,0x8,0xA,0xB,0xC
00004e 0c0d
00004f 0a0b
000050 1508
000051 0013      	.DB  0xD,0xC,0xB,0xA,0x8,0x15,0x13,0x0
000052 0000
000053 0000
000054 0000
000055 0000      	.DB  0x0,0x0,0x0,0x0,0x0,0x0,0x0,0x0
000056 0000
000057 0000
000058 0000
C:\cvavr2\projects\scanner\List\sc.asm(1102): warning: .cseg .db misalignment - padding zero byte
000059 0000      	.DB  0x0,0x0,0x0,0x0,0x0,0x0,0x0
                 _arrow_left:
00005a 0000
00005b 0602
00005c 060e
00005d 0002      	.DB  0x0,0x0,0x2,0x6,0xE,0x6,0x2,0x0
                 _arrow_right:
00005e 0000
00005f 0c08
000060 0c0e
000061 0008      	.DB  0x0,0x0,0x8,0xC,0xE,0xC,0x8,0x0
                 _tbl10_G101:
000062 2710
000063 03e8
000064 0064
000065 000a      	.DB  0x10,0x27,0xE8,0x3,0x64,0x0,0xA,0x0
000066 0001      	.DB  0x1,0x0
                 _tbl16_G101:
000067 1000
000068 0100
000069 0010
00006a 0001      	.DB  0x0,0x10,0x0,0x1,0x10,0x0,0x1,0x0
                 
                 ;REGISTER BIT VARIABLES INITIALIZATION
                 __REG_BIT_VARS:
00006b 0010      	.DW  0x0010
                 
                 _0x27:
00006c 7250
00006d 7365
00006e 7465      	.DB  0x50,0x72,0x65,0x73,0x65,0x74
                 _0x28:
00006f 7449
000070 6d65      	.DB  0x49,0x74,0x65,0x6D
                 _0x3C:
C:\cvavr2\projects\scanner\List\sc.asm(1122): warning: .cseg .db misalignment - padding zero byte
000071 0001      	.DB  0x1
                 _0x3D:
C:\cvavr2\projects\scanner\List\sc.asm(1124): warning: .cseg .db misalignment - padding zero byte
000072 0001      	.DB  0x1
                 _0x3E:
C:\cvavr2\projects\scanner\List\sc.asm(1126): warning: .cseg .db misalignment - padding zero byte
000073 0004      	.DB  0x4
                 _0x3F:
C:\cvavr2\projects\scanner\List\sc.asm(1128): warning: .cseg .db misalignment - padding zero byte
000074 0004      	.DB  0x4
                 _0x40:
C:\cvavr2\projects\scanner\List\sc.asm(1130): warning: .cseg .db misalignment - padding zero byte
000075 0001      	.DB  0x1
                 _0x41:
C:\cvavr2\projects\scanner\List\sc.asm(1132): warning: .cseg .db misalignment - padding zero byte
000076 0001      	.DB  0x1
                 _0x42:
C:\cvavr2\projects\scanner\List\sc.asm(1134): warning: .cseg .db misalignment - padding zero byte
000077 0001      	.DB  0x1
                 _0x43:
C:\cvavr2\projects\scanner\List\sc.asm(1136): warning: .cseg .db misalignment - padding zero byte
000078 0001      	.DB  0x1
                 _0x7A:
C:\cvavr2\projects\scanner\List\sc.asm(1138): warning: .cseg .db misalignment - padding zero byte
000079 0001      	.DB  0x1
                 _0x7B:
00007a 1b58      	.DB  0x58,0x1B
                 _0x16C:
00007b 0000
00007c 0000
00007d 0000      	.DB  0x0,0x0,0x0,0x0,0x0,0x0
                 _0x0:
00007e 654d
00007f 6f6d
000080 7972
000081 7720      	.DB  0x4D,0x65,0x6D,0x6F,0x72,0x79,0x20,0x77
000082 6972
000083 6574
000084 4d00
000085 6d65      	.DB  0x72,0x69,0x74,0x65,0x0,0x4D,0x65,0x6D
000086 726f
000087 2079
000088 6572
000089 6461      	.DB  0x6F,0x72,0x79,0x20,0x72,0x65,0x61,0x64
00008a 4d00
00008b 6d65
00008c 726f
00008d 2079      	.DB  0x0,0x4D,0x65,0x6D,0x6F,0x72,0x79,0x20
00008e 6e69
00008f 7469
000090 4d00
000091 646f      	.DB  0x69,0x6E,0x69,0x74,0x0,0x4D,0x6F,0x64
000092 0065
000093 7053
000094 6565
000095 0064      	.DB  0x65,0x0,0x53,0x70,0x65,0x65,0x64,0x0
000096 664f
000097 0066
000098 6445
000099 7469      	.DB  0x4F,0x66,0x66,0x0,0x45,0x64,0x69,0x74
00009a 0020
00009b 754f
00009c 0074
00009d 464f      	.DB  0x20,0x0,0x4F,0x75,0x74,0x0,0x4F,0x46
00009e 0046
00009f 4820
0000a0 6d61
0000a1 6f6d      	.DB  0x46,0x0,0x20,0x48,0x61,0x6D,0x6D,0x6F
0000a2 646e
0000a3 4f20
0000a4 6772
0000a5 6e61      	.DB  0x6E,0x64,0x20,0x4F,0x72,0x67,0x61,0x6E
0000a6 2020
0000a7 2000
0000a8 6956
0000a9 7262      	.DB  0x20,0x20,0x0,0x20,0x56,0x69,0x62,0x72
0000aa 7461
0000ab 2f6f
0000ac 6843
0000ad 726f      	.DB  0x61,0x74,0x6F,0x2F,0x43,0x68,0x6F,0x72
0000ae 7375
0000af 0020
0000b0 6944
0000b1 6967      	.DB  0x75,0x73,0x20,0x0,0x44,0x69,0x67,0x69
0000b2 6174
0000b3 206c
0000b4 6353
0000b5 6e61      	.DB  0x74,0x61,0x6C,0x20,0x53,0x63,0x61,0x6E
0000b6 656e
0000b7 2072
0000b8 2000
0000b9 2020      	.DB  0x6E,0x65,0x72,0x20,0x0,0x20,0x20,0x20
0000ba 2020
0000bb 6220
0000bc 2079
0000bd 2020      	.DB  0x20,0x20,0x20,0x62,0x79,0x20,0x20,0x20
0000be 2020
0000bf 2020
0000c0 0020
0000c1 5220      	.DB  0x20,0x20,0x20,0x20,0x20,0x0,0x20,0x52
0000c2 6e69
0000c3 6e6f
0000c4 4e20
0000c5 6e69      	.DB  0x69,0x6E,0x6F,0x6E,0x20,0x4E,0x69,0x6E
0000c6 7571
0000c7 6f65
0000c8 206e
C:\cvavr2\projects\scanner\List\sc.asm(1162): warning: .cseg .db misalignment - padding zero byte
0000c9 0000      	.DB  0x71,0x75,0x65,0x6F,0x6E,0x20,0x0
                 _0x2000003:
0000ca c080      	.DB  0x80,0xC0
                 
                 __GLOBAL_INI_TBL:
0000cb 0001      	.DW  0x01
0000cc 0002      	.DW  0x02
0000cd 00d6      	.DW  __REG_BIT_VARS*2
                 
0000ce 0006      	.DW  0x06
0000cf 01f8      	.DW  _t_preset
0000d0 00d8      	.DW  _0x27*2
                 
0000d1 0004      	.DW  0x04
0000d2 01ff      	.DW  _t_item
0000d3 00de      	.DW  _0x28*2
                 
0000d4 000d      	.DW  0x0D
0000d5 0160      	.DW  _0x2A
0000d6 00fc      	.DW  _0x0*2
                 
0000d7 000c      	.DW  0x0C
0000d8 016d      	.DW  _0x2E
0000d9 0109      	.DW  _0x0*2+13
                 
0000da 000c      	.DW  0x0C
0000db 0179      	.DW  _0x35
0000dc 0115      	.DW  _0x0*2+25
                 
0000dd 0001      	.DW  0x01
0000de 0204      	.DW  _dir1
0000df 00e2      	.DW  _0x3C*2
                 
0000e0 0001      	.DW  0x01
0000e1 0205      	.DW  _dir2
0000e2 00e4      	.DW  _0x3D*2
                 
0000e3 0001      	.DW  0x01
0000e4 0206      	.DW  _dir_cnt1
0000e5 00e6      	.DW  _0x3E*2
                 
0000e6 0001      	.DW  0x01
0000e7 0207      	.DW  _dir_cnt2
0000e8 00e8      	.DW  _0x3F*2
                 
0000e9 0001      	.DW  0x01
0000ea 0208      	.DW  _e11
0000eb 00ea      	.DW  _0x40*2
                 
0000ec 0001      	.DW  0x01
0000ed 0209      	.DW  _e12
0000ee 00ec      	.DW  _0x41*2
                 
0000ef 0001      	.DW  0x01
0000f0 020a      	.DW  _e21
0000f1 00ee      	.DW  _0x42*2
                 
0000f2 0001      	.DW  0x01
0000f3 020b      	.DW  _e22
0000f4 00f0      	.DW  _0x43*2
                 
0000f5 0001      	.DW  0x01
0000f6 020f      	.DW  _scan_mode
0000f7 00f2      	.DW  _0x7A*2
                 
0000f8 0002      	.DW  0x02
0000f9 0212      	.DW  _scan_speed
0000fa 00f4      	.DW  _0x7B*2
                 
0000fb 0005      	.DW  0x05
0000fc 0185      	.DW  _0x82
0000fd 0121      	.DW  _0x0*2+37
                 
0000fe 0006      	.DW  0x06
0000ff 018a      	.DW  _0x82+5
000100 0126      	.DW  _0x0*2+42
                 
000101 0004      	.DW  0x04
000102 0190      	.DW  _0x82+11
000103 012c      	.DW  _0x0*2+48
                 
000104 0006      	.DW  0x06
000105 0194      	.DW  _0x82+15
000106 0130      	.DW  _0x0*2+52
                 
000107 0004      	.DW  0x04
000108 019a      	.DW  _0x82+21
000109 0136      	.DW  _0x0*2+58
                 
00010a 0004      	.DW  0x04
00010b 019e      	.DW  _0x82+25
00010c 013a      	.DW  _0x0*2+62
                 
00010d 0011      	.DW  0x11
00010e 01a2      	.DW  _0x13A
00010f 013e      	.DW  _0x0*2+66
                 
000110 0011      	.DW  0x11
000111 01b3      	.DW  _0x13A+17
000112 014f      	.DW  _0x0*2+83
                 
000113 0011      	.DW  0x11
000114 01c4      	.DW  _0x13A+34
000115 0160      	.DW  _0x0*2+100
                 
000116 0011      	.DW  0x11
000117 01d5      	.DW  _0x13A+51
000118 0171      	.DW  _0x0*2+117
                 
000119 0011      	.DW  0x11
00011a 01e6      	.DW  _0x13A+68
00011b 0182      	.DW  _0x0*2+134
                 
00011c 0006      	.DW  0x06
00011d 0007      	.DW  0x07
00011e 00f6      	.DW  _0x16C*2
                 
00011f 0002      	.DW  0x02
000120 025a      	.DW  __base_y_G100
000121 0194      	.DW  _0x2000003*2
                 
                 _0xFFFFFFFF:
000122 0000      	.DW  0
                 
                 __RESET:
000123 94f8      	CLI
000124 27ee      	CLR  R30
000125 bbec      	OUT  EECR,R30
                 
                 ;INTERRUPT VECTORS ARE PLACED
                 ;AT THE START OF FLASH
000126 e0f1      	LDI  R31,1
000127 bffb      	OUT  GICR,R31
000128 bfeb      	OUT  GICR,R30
000129 bfe5      	OUT  MCUCR,R30
                 
                 ;DISABLE WATCHDOG
00012a e1f8      	LDI  R31,0x18
00012b bdf1      	OUT  WDTCR,R31
00012c bde1      	OUT  WDTCR,R30
                 
                 ;CLEAR R2-R14
00012d e08d      	LDI  R24,(14-2)+1
00012e e0a2      	LDI  R26,2
00012f 27bb      	CLR  R27
                 __CLEAR_REG:
000130 93ed      	ST   X+,R30
000131 958a      	DEC  R24
000132 f7e9      	BRNE __CLEAR_REG
                 
                 ;CLEAR SRAM
000133 e080      	LDI  R24,LOW(0x400)
000134 e094      	LDI  R25,HIGH(0x400)
000135 e6a0      	LDI  R26,0x60
                 __CLEAR_SRAM:
000136 93ed      	ST   X+,R30
000137 9701      	SBIW R24,1
000138 f7e9      	BRNE __CLEAR_SRAM
                 
                 ;GLOBAL VARIABLES INITIALIZATION
000139 e9e6      	LDI  R30,LOW(__GLOBAL_INI_TBL*2)
00013a e0f1      	LDI  R31,HIGH(__GLOBAL_INI_TBL*2)
                 __GLOBAL_INI_NEXT:
00013b 9185      	LPM  R24,Z+
00013c 9195      	LPM  R25,Z+
00013d 9700      	SBIW R24,0
00013e f061      	BREQ __GLOBAL_INI_END
00013f 91a5      	LPM  R26,Z+
000140 91b5      	LPM  R27,Z+
000141 9005      	LPM  R0,Z+
000142 9015      	LPM  R1,Z+
000143 01bf      	MOVW R22,R30
000144 01f0      	MOVW R30,R0
                 __GLOBAL_INI_LOOP:
000145 9005      	LPM  R0,Z+
000146 920d      	ST   X+,R0
000147 9701      	SBIW R24,1
000148 f7e1      	BRNE __GLOBAL_INI_LOOP
000149 01fb      	MOVW R30,R22
00014a cff0      	RJMP __GLOBAL_INI_NEXT
                 __GLOBAL_INI_END:
                 
                 ;STACK POINTER INITIALIZATION
00014b e5ef      	LDI  R30,LOW(0x45F)
00014c bfed      	OUT  SPL,R30
00014d e0e4      	LDI  R30,HIGH(0x45F)
00014e bfee      	OUT  SPH,R30
                 
                 ;DATA STACK POINTER INITIALIZATION
00014f e6c0      	LDI  R28,LOW(0x160)
000150 e0d1      	LDI  R29,HIGH(0x160)
                 
000151 940c 0a92 	JMP  _main
                 
                 	.ESEG
                 	.ORG 0
                 
                 	.DSEG
                 	.ORG 0x160
                 
                 	.CSEG
                 ;/*****************************************************
                 ;This program was produced by the
                 ;CodeWizardAVR V2.04.4a Advanced
                 ;Automatic Program Generator
                 ;© Copyright 1998-2009 Pavel Haiduc, HP InfoTech s.r.l.
                 ;http://www.hpinfotech.com
                 ;
                 ;Project :
                 ;Version :
                 ;Date    : 10.01.2013
                 ;Author  : NeVaDa
                 ;Company :
                 ;Comments:
                 ;
                 ;
                 ;Chip type               : ATmega8
                 ;Program type            : Application
                 ;AVR Core Clock frequency: 16,000000 MHz
                 ;Memory model            : Small
                 ;External RAM size       : 0
                 ;Data Stack size         : 256
                 ;*****************************************************/
                 ;
                 ;#include <mega16.h>
                 	#ifndef __SLEEP_DEFINED__
                 	#define __SLEEP_DEFINED__
                 	.EQU __se_bit=0x40
                 	.EQU __sm_mask=0xB0
                 	.EQU __sm_powerdown=0x20
                 	.EQU __sm_powersave=0x30
                 	.EQU __sm_standby=0xA0
                 	.EQU __sm_ext_standby=0xB0
                 	.EQU __sm_adc_noise_red=0x10
                 	.SET power_ctrl_reg=mcucr
                 	#endif
                 ;
                 ;#define SetBit(x,y) (x|=y)
                 ;#define ClrBit(x,y) (x&=~y)
                 ;#define TestBit(x,y) (x&y)
                 ;
                 ;// I2C Bus functions
                 ;#asm
                    .equ __i2c_port=0x12 ;PORTD
                    .equ __sda_bit=0
                    .equ __scl_bit=1
                 ; 0000 0023 #endasm
                 ;#include <i2c.h>
                 ;
                 ;// Alphanumeric LCD Module functions
                 ;#asm
                    .equ __lcd_port=0x15 ;PORTC
                 ; 0000 0029 #endasm
                 ;#include <lcd.h>
                 ;#include <delay.h>
                 ;#include <stdio.h>
                 ;#include <24LC16.h>
                 
                 	.CSEG
                 _write_var:
000153 931a      	ST   -Y,R17
                 ;	block -> Y+3
                 ;	addr -> Y+2
                 ;	data -> Y+1
                 ;	res -> R17
000154 e010      	LDI  R17,0
000155 81eb      	LDD  R30,Y+3
000156 0fee      	LSL  R30
000157 83eb      	STD  Y+3,R30
000158 6ae0      	ORI  R30,LOW(0xA0)
000159 83eb      	STD  Y+3,R30
00015a 7fee      	ANDI R30,0xFE
00015b 83eb      	STD  Y+3,R30
                 _0x3:
00015c 3010      	CPI  R17,0
00015d f441      	BRNE _0x5
00015e 940e 0cc5 	CALL _i2c_start
000160 81eb      	LDD  R30,Y+3
000161 93ea      	ST   -Y,R30
000162 940e 0cf9 	CALL _i2c_write
000164 2f1e      	MOV  R17,R30
000165 cff6      	RJMP _0x3
                 _0x5:
000166 e010      	LDI  R17,LOW(0)
                 _0x6:
000167 3010      	CPI  R17,0
000168 f431      	BRNE _0x8
000169 81ea      	LDD  R30,Y+2
00016a 93ea      	ST   -Y,R30
00016b 940e 0cf9 	CALL _i2c_write
00016d 2f1e      	MOV  R17,R30
00016e cff8      	RJMP _0x6
                 _0x8:
00016f e010      	LDI  R17,LOW(0)
                 _0x9:
000170 3010      	CPI  R17,0
000171 f431      	BRNE _0xB
000172 81e9      	LDD  R30,Y+1
000173 93ea      	ST   -Y,R30
000174 940e 0cf9 	CALL _i2c_write
000176 2f1e      	MOV  R17,R30
000177 cff8      	RJMP _0x9
                 _0xB:
000178 940e 0cd4 	CALL _i2c_stop
00017a 8118      	LDD  R17,Y+0
00017b 9624      	ADIW R28,4
00017c 9508      	RET
                 _read_var:
00017d 931a      	ST   -Y,R17
                 ;	block -> Y+2
                 ;	addr -> Y+1
                 ;	res -> R17
00017e e010      	LDI  R17,0
00017f 81ea      	LDD  R30,Y+2
000180 0fee      	LSL  R30
000181 83ea      	STD  Y+2,R30
000182 6ae0      	ORI  R30,LOW(0xA0)
000183 83ea      	STD  Y+2,R30
000184 7fee      	ANDI R30,0xFE
000185 83ea      	STD  Y+2,R30
                 _0xC:
000186 3010      	CPI  R17,0
000187 f441      	BRNE _0xE
000188 940e 0cc5 	CALL _i2c_start
00018a 81ea      	LDD  R30,Y+2
00018b 93ea      	ST   -Y,R30
00018c 940e 0cf9 	CALL _i2c_write
00018e 2f1e      	MOV  R17,R30
00018f cff6      	RJMP _0xC
                 _0xE:
000190 e010      	LDI  R17,LOW(0)
                 _0xF:
000191 3010      	CPI  R17,0
000192 f431      	BRNE _0x11
000193 81e9      	LDD  R30,Y+1
000194 93ea      	ST   -Y,R30
000195 940e 0cf9 	CALL _i2c_write
000197 2f1e      	MOV  R17,R30
000198 cff8      	RJMP _0xF
                 _0x11:
000199 e010      	LDI  R17,LOW(0)
00019a 81ea      	LDD  R30,Y+2
00019b 60e1      	ORI  R30,1
00019c 83ea      	STD  Y+2,R30
                 _0x12:
00019d 3010      	CPI  R17,0
00019e f441      	BRNE _0x14
00019f 940e 0cc5 	CALL _i2c_start
0001a1 81ea      	LDD  R30,Y+2
0001a2 93ea      	ST   -Y,R30
0001a3 940e 0cf9 	CALL _i2c_write
0001a5 2f1e      	MOV  R17,R30
0001a6 cff6      	RJMP _0x12
                 _0x14:
0001a7 e0e0      	LDI  R30,LOW(0)
0001a8 93ea      	ST   -Y,R30
0001a9 940e 0cde 	CALL _i2c_read
0001ab 2f1e      	MOV  R17,R30
0001ac 940e 0cd4 	CALL _i2c_stop
0001ae 2fe1      	MOV  R30,R17
0001af 8118      	LDD  R17,Y+0
0001b0 c07b      	RJMP _0x2080004
                 ;
                 ;unsigned char val1, val2, val3, val4, val5;
                 ;void LCDWriteInt(unsigned int val, unsigned char move)
                 ; 0000 0031 {
                 _LCDWriteInt:
                 ; 0000 0032     /***************************************************************
                 ; 0000 0033     This function writes a integer type value to LCD module
                 ; 0000 0034 
                 ; 0000 0035     Arguments:
                 ; 0000 0036 	1)unsigned char val	: Value to print
                 ; 0000 0037 
                 ; 0000 0038 	2)unsigned char field_length :total length of field in which the value is printed
                 ; 0000 0039 	must be between 1-3 if it is -1 the field length is no of digits in the val
                 ; 0000 003A 
                 ; 0000 003B 	****************************************************************/
                 ; 0000 003C 
                 ; 0000 003D     val1 = val % 10;
                 ;	val -> Y+1
                 ;	move -> Y+0
0001b1 81a9      	LDD  R26,Y+1
0001b2 81ba      	LDD  R27,Y+1+1
0001b3 e0ea      	LDI  R30,LOW(10)
0001b4 e0f0      	LDI  R31,HIGH(10)
0001b5 940e 0d31 	CALL __MODW21U
0001b7 2e4e      	MOV  R4,R30
                 ; 0000 003E     val2 = (val / 10) % 10;
0001b8 81a9      	LDD  R26,Y+1
0001b9 81ba      	LDD  R27,Y+1+1
0001ba e0ea      	LDI  R30,LOW(10)
0001bb e0f0      	LDI  R31,HIGH(10)
0001bc 940e 0d1e 	CALL __DIVW21U
0001be 01df      	MOVW R26,R30
0001bf e0ea      	LDI  R30,LOW(10)
0001c0 e0f0      	LDI  R31,HIGH(10)
0001c1 940e 0d31 	CALL __MODW21U
0001c3 2e3e      	MOV  R3,R30
                 ; 0000 003F     val3 = (val / 100) % 10;
0001c4 81a9      	LDD  R26,Y+1
0001c5 81ba      	LDD  R27,Y+1+1
0001c6 e6e4      	LDI  R30,LOW(100)
0001c7 e0f0      	LDI  R31,HIGH(100)
0001c8 940e 0d1e 	CALL __DIVW21U
0001ca 01df      	MOVW R26,R30
0001cb e0ea      	LDI  R30,LOW(10)
0001cc e0f0      	LDI  R31,HIGH(10)
0001cd 940e 0d31 	CALL __MODW21U
0001cf 2e6e      	MOV  R6,R30
                 ; 0000 0040     val4 = (val / 1000) % 10;
0001d0 81a9      	LDD  R26,Y+1
0001d1 81ba      	LDD  R27,Y+1+1
0001d2 eee8      	LDI  R30,LOW(1000)
0001d3 e0f3      	LDI  R31,HIGH(1000)
0001d4 940e 0d1e 	CALL __DIVW21U
0001d6 01df      	MOVW R26,R30
0001d7 e0ea      	LDI  R30,LOW(10)
0001d8 e0f0      	LDI  R31,HIGH(10)
0001d9 940e 0d31 	CALL __MODW21U
0001db 2e5e      	MOV  R5,R30
                 ; 0000 0041     val5 = (val / 10000) % 10;
0001dc 81a9      	LDD  R26,Y+1
0001dd 81ba      	LDD  R27,Y+1+1
0001de e1e0      	LDI  R30,LOW(10000)
0001df e2f7      	LDI  R31,HIGH(10000)
0001e0 940e 0d1e 	CALL __DIVW21U
0001e2 01df      	MOVW R26,R30
0001e3 e0ea      	LDI  R30,LOW(10)
0001e4 e0f0      	LDI  R31,HIGH(10)
0001e5 940e 0d31 	CALL __MODW21U
0001e7 2e8e      	MOV  R8,R30
                 ; 0000 0042 
                 ; 0000 0043     if (val5 != 0)
0001e8 2088      	TST  R8
0001e9 f019      	BREQ _0x15
                 ; 0000 0044         lcd_putchar(48 + val5);
0001ea 2de8      	MOV  R30,R8
0001eb 5de0      	SUBI R30,-LOW(48)
0001ec c004      	RJMP _0x14E
                 ; 0000 0045     else
                 _0x15:
                 ; 0000 0046     if (move > 4)
0001ed 81a8      	LD   R26,Y
0001ee 30a5      	CPI  R26,LOW(0x5)
0001ef f020      	BRLO _0x17
                 ; 0000 0047         lcd_putchar(' ');
0001f0 e2e0      	LDI  R30,LOW(32)
                 _0x14E:
0001f1 93ea      	ST   -Y,R30
0001f2 940e 0c39 	CALL _lcd_putchar
                 ; 0000 0048     if (val4 != 0 || val5 != 0)
                 _0x17:
0001f4 e0e0      	LDI  R30,LOW(0)
0001f5 15e5      	CP   R30,R5
0001f6 f411      	BRNE _0x19
0001f7 15e8      	CP   R30,R8
0001f8 f019      	BREQ _0x18
                 _0x19:
                 ; 0000 0049         lcd_putchar(48 + val4);
0001f9 2de5      	MOV  R30,R5
0001fa 5de0      	SUBI R30,-LOW(48)
0001fb c004      	RJMP _0x14F
                 ; 0000 004A     else
                 _0x18:
                 ; 0000 004B     if (move > 3)
0001fc 81a8      	LD   R26,Y
0001fd 30a4      	CPI  R26,LOW(0x4)
0001fe f020      	BRLO _0x1C
                 ; 0000 004C         lcd_putchar(' ');
0001ff e2e0      	LDI  R30,LOW(32)
                 _0x14F:
000200 93ea      	ST   -Y,R30
000201 940e 0c39 	CALL _lcd_putchar
                 ; 0000 004D     if (val3 != 0 || val4 != 0 || val5 != 0)
                 _0x1C:
000203 e0e0      	LDI  R30,LOW(0)
000204 15e6      	CP   R30,R6
000205 f421      	BRNE _0x1E
000206 15e5      	CP   R30,R5
000207 f411      	BRNE _0x1E
000208 15e8      	CP   R30,R8
000209 f019      	BREQ _0x1D
                 _0x1E:
                 ; 0000 004E         lcd_putchar(48 + val3);
00020a 2de6      	MOV  R30,R6
00020b 5de0      	SUBI R30,-LOW(48)
00020c c004      	RJMP _0x150
                 ; 0000 004F     else
                 _0x1D:
                 ; 0000 0050     if (move > 2)
00020d 81a8      	LD   R26,Y
00020e 30a3      	CPI  R26,LOW(0x3)
00020f f020      	BRLO _0x21
                 ; 0000 0051         lcd_putchar(' ');
000210 e2e0      	LDI  R30,LOW(32)
                 _0x150:
000211 93ea      	ST   -Y,R30
000212 940e 0c39 	CALL _lcd_putchar
                 ; 0000 0052     if (val2 != 0 || val3 != 0 || val4 != 0 || val5 != 0)
                 _0x21:
000214 e0e0      	LDI  R30,LOW(0)
000215 15e3      	CP   R30,R3
000216 f431      	BRNE _0x23
000217 15e6      	CP   R30,R6
000218 f421      	BRNE _0x23
000219 15e5      	CP   R30,R5
00021a f411      	BRNE _0x23
00021b 15e8      	CP   R30,R8
00021c f019      	BREQ _0x22
                 _0x23:
                 ; 0000 0053         lcd_putchar(48 + val2);
00021d 2de3      	MOV  R30,R3
00021e 5de0      	SUBI R30,-LOW(48)
00021f c004      	RJMP _0x151
                 ; 0000 0054     else
                 _0x22:
                 ; 0000 0055     if (move > 1)
000220 81a8      	LD   R26,Y
000221 30a2      	CPI  R26,LOW(0x2)
000222 f020      	BRLO _0x26
                 ; 0000 0056         lcd_putchar(' ');
000223 e2e0      	LDI  R30,LOW(32)
                 _0x151:
000224 93ea      	ST   -Y,R30
000225 940e 0c39 	CALL _lcd_putchar
                 ; 0000 0057     lcd_putchar(48 + val1);
                 _0x26:
000227 2de4      	MOV  R30,R4
000228 5de0      	SUBI R30,-LOW(48)
000229 93ea      	ST   -Y,R30
00022a 940e 0c39 	CALL _lcd_putchar
                 ; 0000 0058 }
                 _0x2080004:
00022c 9623      	ADIW R28,3
00022d 9508      	RET
                 ;
                 ;
                 ;#include "patterns.c"
                 ;#define MAX_ITEMS       30
                 ;#define MAX_PATTERNS    8
                 ;#define MAX_OUT         16
                 ;
                 ;unsigned char current_pattern = 0;
                 ;
                 ;typedef struct type_pattern
                 ;{
                 ;    unsigned char length;
                 ;    unsigned char out[MAX_ITEMS];
                 ;} t_pattern;
                 ;
                 ;flash t_pattern v1 = {14,
                 ;                                {0x10, 0x11, 0x12, 0x13, 0x14, 0x15, 0x16, 0x17, 0x16, 0x15, 0x14, 0x13, 0x12, 0x11,
                 ;                                 0x00, 0x00, 0x00, 0x00, 0x00, 0x00, 0x00, 0x00, 0x00, 0x00, 0x00, 0x00, 0x00, 0x00, 0x00, 0x00}};
                 ;
                 ;flash t_pattern v2 = {14,
                 ;                                {0x10, 0x12, 0x13, 0x14, 0x17, 0x09, 0x0A, 0x0B, 0x0A, 0x09, 0x17, 0x14, 0x13, 0x12,
                 ;                                 0x00, 0x00, 0x00, 0x00, 0x00, 0x00, 0x00, 0x00, 0x00, 0x00, 0x00, 0x00, 0x00, 0x00, 0x00, 0x00}};
                 ;
                 ;flash t_pattern v3 = {14,
                 ;                                {0x11, 0x13, 0x15, 0x08, 0x0A, 0x0B, 0x0C, 0x0D, 0x0C, 0x0B, 0x0A, 0x08, 0x15, 0x13,
                 ;                                 0x00, 0x00, 0x00, 0x00, 0x00, 0x00, 0x00, 0x00, 0x00, 0x00, 0x00, 0x00, 0x00, 0x00, 0x00, 0x00}};
                 ;unsigned int block = 0, addr = 0;
                 ;unsigned char _e_read, i, j;
                 ;unsigned char t_preset[] = "Preset";
                 
                 	.DSEG
                 ;unsigned char t_item[] = "Item";
                 ;
                 ;void inline check_ab()
                 ; 0000 005B {
                 
                 	.CSEG
                 _check_ab:
                 ;    if (addr > 255)
00022e efef      	LDI  R30,LOW(255)
00022f e0f0      	LDI  R31,HIGH(255)
000230 15eb      	CP   R30,R11
000231 05fc      	CPC  R31,R12
000232 f430      	BRSH _0x29
                 ;    {
                 ;        addr = 0;
000233 24bb      	CLR  R11
000234 24cc      	CLR  R12
                 ;        block++;
000235 e0e1      	LDI  R30,LOW(1)
000236 e0f0      	LDI  R31,HIGH(1)
                +
000237 0e9e     +ADD R9 , R30
000238 1eaf     +ADC R10 , R31
                 	__ADDWRR 9,10,30,31
                 ;    }
                 ;}
                 _0x29:
000239 9508      	RET
                 ;
                 ;void write_pattern(t_pattern patt, unsigned char num)
                 ;{
                 _write_pattern:
                 ;    #asm("cli")
                 ;	patt -> Y+1
                 ;	num -> Y+0
00023a 94f8      	cli
                 ;    lcd_clear();
00023b 940e 0c21 	CALL _lcd_clear
                 ;    lcd_puts("Memory write");
                +
00023d e6e0     +LDI R30 , LOW ( _0x2A + ( 0 ) )
00023e e0f1     +LDI R31 , HIGH ( _0x2A + ( 0 ) )
                 	__POINTW1MN _0x2A,0
00023f 93fa      	ST   -Y,R31
000240 93ea      	ST   -Y,R30
000241 940e 0c60 	CALL _lcd_puts
                 ;    addr = 3 + num * (MAX_ITEMS + 1);
000243 81a8      	LD   R26,Y
000244 e1ef      	LDI  R30,LOW(31)
000245 02ea      	MULS R30,R26
000246 01f0      	MOVW R30,R0
000247 9633      	ADIW R30,3
                +
000248 2ebe     +MOV R11 , R30
000249 2ecf     +MOV R12 , R31
                 	__PUTW1R 11,12
                 ;    block = addr / 256;
00024a 2dec      	MOV  R30,R12
00024b 70f0      	ANDI R31,HIGH(0x0)
                +
00024c 2e9e     +MOV R9 , R30
00024d 2eaf     +MOV R10 , R31
                 	__PUTW1R 9,10
                 ;    addr = addr % 256;
                +
00024e 2deb     +MOV R30 , R11
00024f 2dfc     +MOV R31 , R12
                 	__GETW1R 11,12
000250 70f0      	ANDI R31,HIGH(0xFF)
                +
000251 2ebe     +MOV R11 , R30
000252 2ecf     +MOV R12 , R31
                 	__PUTW1R 11,12
                 ;
                 ;    write_var(block, addr, patt.length);
000253 929a      	ST   -Y,R9
000254 92ba      	ST   -Y,R11
000255 81eb      	LDD  R30,Y+3
000256 93ea      	ST   -Y,R30
000257 defb      	RCALL _write_var
                 ;
                 ;    addr++;
000258 e0e1      	LDI  R30,LOW(1)
000259 e0f0      	LDI  R31,HIGH(1)
                +
00025a 0ebe     +ADD R11 , R30
00025b 1ecf     +ADC R12 , R31
                 	__ADDWRR 11,12,30,31
                 ;    check_ab();
00025c dfd1      	RCALL _check_ab
                 ;
                 ;    lcd_gotoxy(0, 1);
00025d e0e0      	LDI  R30,LOW(0)
00025e 93ea      	ST   -Y,R30
00025f e0e1      	LDI  R30,LOW(1)
000260 93ea      	ST   -Y,R30
000261 940e 0c0d 	CALL _lcd_gotoxy
                 ;
                 ;    lcd_puts(t_preset);
000263 efe8      	LDI  R30,LOW(_t_preset)
000264 e0f1      	LDI  R31,HIGH(_t_preset)
000265 93fa      	ST   -Y,R31
000266 93ea      	ST   -Y,R30
000267 940e 0c60 	CALL _lcd_puts
                 ;    lcd_putchar(' ');
000269 e2e0      	LDI  R30,LOW(32)
00026a 93ea      	ST   -Y,R30
00026b 940e 0c39 	CALL _lcd_putchar
                 ;
                 ;    LCDWriteInt(num, 0);
00026d 81e8      	LD   R30,Y
00026e e0f0      	LDI  R31,0
00026f 93fa      	ST   -Y,R31
000270 93ea      	ST   -Y,R30
000271 e0e0      	LDI  R30,LOW(0)
000272 93ea      	ST   -Y,R30
000273 df3d      	RCALL _LCDWriteInt
                 ;
                 ;    lcd_putchar(' ');
000274 e2e0      	LDI  R30,LOW(32)
000275 93ea      	ST   -Y,R30
000276 940e 0c39 	CALL _lcd_putchar
                 ;    lcd_puts(t_item);
000278 efef      	LDI  R30,LOW(_t_item)
000279 e0f1      	LDI  R31,HIGH(_t_item)
00027a 93fa      	ST   -Y,R31
00027b 93ea      	ST   -Y,R30
00027c 940e 0c60 	CALL _lcd_puts
                 ;    lcd_putchar(' ');
00027e e2e0      	LDI  R30,LOW(32)
00027f 93ea      	ST   -Y,R30
000280 940e 0c39 	CALL _lcd_putchar
                 ;
                 ;    for(j = 0; j < MAX_ITEMS; j++)
000282 e0e0      	LDI  R30,LOW(0)
000283 93e0 01f7 	STS  _j,R30
                 _0x2C:
000285 91a0 01f7 	LDS  R26,_j
000287 31ae      	CPI  R26,LOW(0x1E)
000288 f548      	BRSH _0x2D
                 ;    {
                 ;        lcd_gotoxy(14, 1);
000289 e0ee      	LDI  R30,LOW(14)
00028a 93ea      	ST   -Y,R30
00028b e0e1      	LDI  R30,LOW(1)
00028c 93ea      	ST   -Y,R30
00028d 940e 0c0d 	CALL _lcd_gotoxy
                 ;        LCDWriteInt(j, 0);
00028f 91e0 01f7 	LDS  R30,_j
000291 e0f0      	LDI  R31,0
000292 93fa      	ST   -Y,R31
000293 93ea      	ST   -Y,R30
000294 e0e0      	LDI  R30,LOW(0)
000295 93ea      	ST   -Y,R30
000296 df1a      	RCALL _LCDWriteInt
                 ;        lcd_putchar(' ');
000297 e2e0      	LDI  R30,LOW(32)
000298 93ea      	ST   -Y,R30
000299 940e 0c39 	CALL _lcd_putchar
                 ;        write_var(block, addr, patt.out[j]);
00029b 929a      	ST   -Y,R9
00029c 92ba      	ST   -Y,R11
00029d 91e0 01f7 	LDS  R30,_j
00029f e0f0      	LDI  R31,0
0002a0 01de      	MOVW R26,R28
0002a1 9614      	ADIW R26,4
0002a2 0fae      	ADD  R26,R30
0002a3 1fbf      	ADC  R27,R31
0002a4 91ec      	LD   R30,X
0002a5 93ea      	ST   -Y,R30
0002a6 deac      	RCALL _write_var
                 ;        addr++;
0002a7 e0e1      	LDI  R30,LOW(1)
0002a8 e0f0      	LDI  R31,HIGH(1)
                +
0002a9 0ebe     +ADD R11 , R30
0002aa 1ecf     +ADC R12 , R31
                 	__ADDWRR 11,12,30,31
                 ;        check_ab();
0002ab df82      	RCALL _check_ab
                 ;    }
0002ac 91e0 01f7 	LDS  R30,_j
0002ae 5fef      	SUBI R30,-LOW(1)
0002af 93e0 01f7 	STS  _j,R30
0002b1 cfd3      	RJMP _0x2C
                 _0x2D:
                 ;    #asm("sei")
0002b2 9478      	sei
                 ;}
0002b3 96a0      	ADIW R28,32
0002b4 9508      	RET
                 
                 	.DSEG
                 _0x2A:
000160           	.BYTE 0xD
                 ;
                 ;t_pattern read_pattern(unsigned char num)
                 ;{
                 
                 	.CSEG
                 _read_pattern:
                 ;    t_pattern patt;
                 ;
                 ;    #asm("cli")
0002b5 97ee      	SBIW R28,62
                 ;	num -> Y+62
                 ;	patt -> Y+0
0002b6 94f8      	cli
                 ;    lcd_clear();
0002b7 940e 0c21 	CALL _lcd_clear
                 ;    lcd_puts("Memory read");
                +
0002b9 e6ed     +LDI R30 , LOW ( _0x2E + ( 0 ) )
0002ba e0f1     +LDI R31 , HIGH ( _0x2E + ( 0 ) )
                 	__POINTW1MN _0x2E,0
0002bb 93fa      	ST   -Y,R31
0002bc 93ea      	ST   -Y,R30
0002bd 940e 0c60 	CALL _lcd_puts
                 ;    addr = 3 + num * (MAX_ITEMS + 1);
0002bf adae      	LDD  R26,Y+62
0002c0 e1ef      	LDI  R30,LOW(31)
0002c1 02ea      	MULS R30,R26
0002c2 01f0      	MOVW R30,R0
0002c3 9633      	ADIW R30,3
                +
0002c4 2ebe     +MOV R11 , R30
0002c5 2ecf     +MOV R12 , R31
                 	__PUTW1R 11,12
                 ;    block = addr / 256;
0002c6 2dec      	MOV  R30,R12
0002c7 70f0      	ANDI R31,HIGH(0x0)
                +
0002c8 2e9e     +MOV R9 , R30
0002c9 2eaf     +MOV R10 , R31
                 	__PUTW1R 9,10
                 ;    addr = addr % 256;
                +
0002ca 2deb     +MOV R30 , R11
0002cb 2dfc     +MOV R31 , R12
                 	__GETW1R 11,12
0002cc 70f0      	ANDI R31,HIGH(0xFF)
                +
0002cd 2ebe     +MOV R11 , R30
0002ce 2ecf     +MOV R12 , R31
                 	__PUTW1R 11,12
                 ;
                 ;    patt.length = read_var(block, addr);
0002cf 929a      	ST   -Y,R9
0002d0 92ba      	ST   -Y,R11
0002d1 deab      	RCALL _read_var
0002d2 83e8      	ST   Y,R30
                 ;
                 ;    addr++;
0002d3 e0e1      	LDI  R30,LOW(1)
0002d4 e0f0      	LDI  R31,HIGH(1)
                +
0002d5 0ebe     +ADD R11 , R30
0002d6 1ecf     +ADC R12 , R31
                 	__ADDWRR 11,12,30,31
                 ;    check_ab();
0002d7 df56      	RCALL _check_ab
                 ;
                 ;    lcd_gotoxy(0, 1);
0002d8 e0e0      	LDI  R30,LOW(0)
0002d9 93ea      	ST   -Y,R30
0002da e0e1      	LDI  R30,LOW(1)
0002db 93ea      	ST   -Y,R30
0002dc 940e 0c0d 	CALL _lcd_gotoxy
                 ;    lcd_puts(t_preset);
0002de efe8      	LDI  R30,LOW(_t_preset)
0002df e0f1      	LDI  R31,HIGH(_t_preset)
0002e0 93fa      	ST   -Y,R31
0002e1 93ea      	ST   -Y,R30
0002e2 940e 0c60 	CALL _lcd_puts
                 ;    lcd_putchar(' ');
0002e4 e2e0      	LDI  R30,LOW(32)
0002e5 93ea      	ST   -Y,R30
0002e6 940e 0c39 	CALL _lcd_putchar
                 ;    LCDWriteInt(num, 0);
0002e8 adee      	LDD  R30,Y+62
0002e9 e0f0      	LDI  R31,0
0002ea 93fa      	ST   -Y,R31
0002eb 93ea      	ST   -Y,R30
0002ec e0e0      	LDI  R30,LOW(0)
0002ed 93ea      	ST   -Y,R30
0002ee dec2      	RCALL _LCDWriteInt
                 ;    lcd_putchar(' ');
0002ef e2e0      	LDI  R30,LOW(32)
0002f0 93ea      	ST   -Y,R30
0002f1 940e 0c39 	CALL _lcd_putchar
                 ;    lcd_puts(t_item);
0002f3 efef      	LDI  R30,LOW(_t_item)
0002f4 e0f1      	LDI  R31,HIGH(_t_item)
0002f5 93fa      	ST   -Y,R31
0002f6 93ea      	ST   -Y,R30
0002f7 940e 0c60 	CALL _lcd_puts
                 ;    lcd_putchar(' ');
0002f9 e2e0      	LDI  R30,LOW(32)
0002fa 93ea      	ST   -Y,R30
0002fb 940e 0c39 	CALL _lcd_putchar
                 ;
                 ;    for(j = 0; j < MAX_ITEMS; j++)
0002fd e0e0      	LDI  R30,LOW(0)
0002fe 93e0 01f7 	STS  _j,R30
                 _0x30:
000300 91a0 01f7 	LDS  R26,_j
000302 31ae      	CPI  R26,LOW(0x1E)
000303 f560      	BRSH _0x31
                 ;    {
                 ;        lcd_gotoxy(14, 1);
000304 e0ee      	LDI  R30,LOW(14)
000305 93ea      	ST   -Y,R30
000306 e0e1      	LDI  R30,LOW(1)
000307 93ea      	ST   -Y,R30
000308 940e 0c0d 	CALL _lcd_gotoxy
                 ;        LCDWriteInt(j, 0);
00030a 91e0 01f7 	LDS  R30,_j
00030c e0f0      	LDI  R31,0
00030d 93fa      	ST   -Y,R31
00030e 93ea      	ST   -Y,R30
00030f e0e0      	LDI  R30,LOW(0)
000310 93ea      	ST   -Y,R30
000311 de9f      	RCALL _LCDWriteInt
                 ;        lcd_putchar(' ');
000312 e2e0      	LDI  R30,LOW(32)
000313 93ea      	ST   -Y,R30
000314 940e 0c39 	CALL _lcd_putchar
                 ;        patt.out[j] = read_var(block, addr);
000316 91e0 01f7 	LDS  R30,_j
000318 e0f0      	LDI  R31,0
000319 01de      	MOVW R26,R28
00031a 9611      	ADIW R26,1
00031b 0fea      	ADD  R30,R26
00031c 1ffb      	ADC  R31,R27
00031d 93ff      	PUSH R31
00031e 93ef      	PUSH R30
00031f 929a      	ST   -Y,R9
000320 92ba      	ST   -Y,R11
000321 de5b      	RCALL _read_var
000322 91af      	POP  R26
000323 91bf      	POP  R27
000324 93ec      	ST   X,R30
                 ;        addr++;
000325 e0e1      	LDI  R30,LOW(1)
000326 e0f0      	LDI  R31,HIGH(1)
                +
000327 0ebe     +ADD R11 , R30
000328 1ecf     +ADC R12 , R31
                 	__ADDWRR 11,12,30,31
                 ;        check_ab();
000329 df04      	RCALL _check_ab
                 ;    }
00032a 91e0 01f7 	LDS  R30,_j
00032c 5fef      	SUBI R30,-LOW(1)
00032d 93e0 01f7 	STS  _j,R30
00032f cfd0      	RJMP _0x30
                 _0x31:
                 ;    #asm("sei")
000330 9478      	sei
                 ;    return patt;
000331 01fe      	MOVW R30,R28
000332 01de      	MOVW R26,R28
000333 965f      	ADIW R26,31
000334 e18f      	LDI  R24,31
000335 940e 0d3c 	CALL __COPYMML
000337 01fe      	MOVW R30,R28
000338 967f      	ADIW R30,31
000339 e18f      	LDI  R24,31
00033a b61f      	IN   R1,SREG
00033b 94f8      	CLI
00033c 96ef      	ADIW R28,63
00033d 9508      	RET
                 ;}
                 
                 	.DSEG
                 _0x2E:
00016d           	.BYTE 0xC
                 ;
                 ;unsigned char init_check()
                 ;{
                 
                 	.CSEG
                 _init_check:
                 ;    _e_read = read_var(0, 0);
00033e e0e0      	LDI  R30,LOW(0)
00033f 93ea      	ST   -Y,R30
000340 93ea      	ST   -Y,R30
000341 de3b      	RCALL _read_var
000342 2eee      	MOV  R14,R30
                 ;    if (_e_read != 0x19)
000343 e1e9      	LDI  R30,LOW(25)
000344 15ee      	CP   R30,R14
000345 f491      	BRNE _0x2080003
                 ;        return 1;
                 ;    _e_read = read_var(0, 1);
000346 e0e0      	LDI  R30,LOW(0)
000347 93ea      	ST   -Y,R30
000348 e0e1      	LDI  R30,LOW(1)
000349 93ea      	ST   -Y,R30
00034a de32      	RCALL _read_var
00034b 2eee      	MOV  R14,R30
                 ;    if (_e_read != 0x08)
00034c e0e8      	LDI  R30,LOW(8)
00034d 15ee      	CP   R30,R14
00034e f449      	BRNE _0x2080003
                 ;        return 1;
                 ;    _e_read = read_var(0, 2);
00034f e0e0      	LDI  R30,LOW(0)
000350 93ea      	ST   -Y,R30
000351 e0e2      	LDI  R30,LOW(2)
000352 93ea      	ST   -Y,R30
000353 de29      	RCALL _read_var
000354 2eee      	MOV  R14,R30
                 ;    if (_e_read != 0x1E)
000355 e1ee      	LDI  R30,LOW(30)
000356 15ee      	CP   R30,R14
000357 f011      	BREQ _0x34
                 ;        return 1;
                 _0x2080003:
000358 e0e1      	LDI  R30,LOW(1)
000359 9508      	RET
                 ;    return 0;
                 _0x34:
00035a e0e0      	LDI  R30,LOW(0)
00035b 9508      	RET
                 ;}
                 ;
                 ;void zero_init()
                 ;{
                 _zero_init:
                 ;    lcd_clear();
00035c 940e 0c21 	CALL _lcd_clear
                 ;    lcd_puts("Memory init");
                +
00035e e7e9     +LDI R30 , LOW ( _0x35 + ( 0 ) )
00035f e0f1     +LDI R31 , HIGH ( _0x35 + ( 0 ) )
                 	__POINTW1MN _0x35,0
000360 93fa      	ST   -Y,R31
000361 93ea      	ST   -Y,R30
000362 940e 0c60 	CALL _lcd_puts
                 ;    write_var(0, 0, 0x19);
000364 e0e0      	LDI  R30,LOW(0)
000365 93ea      	ST   -Y,R30
000366 93ea      	ST   -Y,R30
000367 e1e9      	LDI  R30,LOW(25)
000368 93ea      	ST   -Y,R30
000369 dde9      	RCALL _write_var
                 ;    write_var(0, 1, 0x08);
00036a e0e0      	LDI  R30,LOW(0)
00036b 93ea      	ST   -Y,R30
00036c e0e1      	LDI  R30,LOW(1)
00036d 93ea      	ST   -Y,R30
00036e e0e8      	LDI  R30,LOW(8)
00036f 93ea      	ST   -Y,R30
000370 dde2      	RCALL _write_var
                 ;    write_var(0, 2, 0x1E);  //30
000371 e0e0      	LDI  R30,LOW(0)
000372 93ea      	ST   -Y,R30
000373 e0e2      	LDI  R30,LOW(2)
000374 93ea      	ST   -Y,R30
000375 e1ee      	LDI  R30,LOW(30)
000376 93ea      	ST   -Y,R30
000377 dddb      	RCALL _write_var
                 ;
                 ;    block = 0;
000378 2499      	CLR  R9
000379 24aa      	CLR  R10
                 ;    addr = 3;
00037a e0e3      	LDI  R30,LOW(3)
00037b e0f0      	LDI  R31,HIGH(3)
                +
00037c 2ebe     +MOV R11 , R30
00037d 2ecf     +MOV R12 , R31
                 	__PUTW1R 11,12
                 ;    for(i = 0; i < MAX_PATTERNS; i++)
00037e 24dd      	CLR  R13
                 _0x37:
00037f e0e8      	LDI  R30,LOW(8)
000380 16de      	CP   R13,R30
000381 f010      	BRLO PC+3
000382 940c 03e4 	JMP _0x38
                 ;    {
                 ;        write_var(block, addr, v1.length);
000384 929a      	ST   -Y,R9
000385 92ba      	ST   -Y,R11
000386 e5e4      	LDI  R30,LOW(_v1*2)
000387 e0f0      	LDI  R31,HIGH(_v1*2)
000388 91e4      	LPM  R30,Z
000389 93ea      	ST   -Y,R30
00038a ddc8      	RCALL _write_var
                 ;        addr++;
00038b e0e1      	LDI  R30,LOW(1)
00038c e0f0      	LDI  R31,HIGH(1)
                +
00038d 0ebe     +ADD R11 , R30
00038e 1ecf     +ADC R12 , R31
                 	__ADDWRR 11,12,30,31
                 ;            check_ab();
00038f de9e      	RCALL _check_ab
                 ;        for(j = 0; j < MAX_ITEMS; j++)
000390 e0e0      	LDI  R30,LOW(0)
000391 93e0 01f7 	STS  _j,R30
                 _0x3A:
000393 91a0 01f7 	LDS  R26,_j
000395 31ae      	CPI  R26,LOW(0x1E)
000396 f010      	BRLO PC+3
000397 940c 03e2 	JMP _0x3B
                 ;        {
                 ;            lcd_gotoxy(0, 1);
000399 e0e0      	LDI  R30,LOW(0)
00039a 93ea      	ST   -Y,R30
00039b e0e1      	LDI  R30,LOW(1)
00039c 93ea      	ST   -Y,R30
00039d 940e 0c0d 	CALL _lcd_gotoxy
                 ;
                 ;            lcd_puts(t_preset);
00039f efe8      	LDI  R30,LOW(_t_preset)
0003a0 e0f1      	LDI  R31,HIGH(_t_preset)
0003a1 93fa      	ST   -Y,R31
0003a2 93ea      	ST   -Y,R30
0003a3 940e 0c60 	CALL _lcd_puts
                 ;            lcd_putchar(' ');
0003a5 e2e0      	LDI  R30,LOW(32)
0003a6 93ea      	ST   -Y,R30
0003a7 940e 0c39 	CALL _lcd_putchar
                 ;
                 ;            LCDWriteInt(i, 0);
0003a9 2ded      	MOV  R30,R13
0003aa e0f0      	LDI  R31,0
0003ab 93fa      	ST   -Y,R31
0003ac 93ea      	ST   -Y,R30
0003ad e0e0      	LDI  R30,LOW(0)
0003ae 93ea      	ST   -Y,R30
0003af de01      	RCALL _LCDWriteInt
                 ;
                 ;            lcd_putchar(' ');
0003b0 e2e0      	LDI  R30,LOW(32)
0003b1 93ea      	ST   -Y,R30
0003b2 940e 0c39 	CALL _lcd_putchar
                 ;            lcd_puts(t_item);
0003b4 efef      	LDI  R30,LOW(_t_item)
0003b5 e0f1      	LDI  R31,HIGH(_t_item)
0003b6 93fa      	ST   -Y,R31
0003b7 93ea      	ST   -Y,R30
0003b8 940e 0c60 	CALL _lcd_puts
                 ;            lcd_putchar(' ');
0003ba e2e0      	LDI  R30,LOW(32)
0003bb 93ea      	ST   -Y,R30
0003bc 940e 0c39 	CALL _lcd_putchar
                 ;
                 ;            LCDWriteInt(j, 0);
0003be 91e0 01f7 	LDS  R30,_j
0003c0 e0f0      	LDI  R31,0
0003c1 93fa      	ST   -Y,R31
0003c2 93ea      	ST   -Y,R30
0003c3 e0e0      	LDI  R30,LOW(0)
0003c4 93ea      	ST   -Y,R30
0003c5 ddeb      	RCALL _LCDWriteInt
                 ;            lcd_putchar(' ');
0003c6 e2e0      	LDI  R30,LOW(32)
0003c7 93ea      	ST   -Y,R30
0003c8 940e 0c39 	CALL _lcd_putchar
                 ;
                 ;            write_var(block, addr, v1.out[j]);
0003ca 929a      	ST   -Y,R9
0003cb 92ba      	ST   -Y,R11
                +
0003cc e5e5     +LDI R30 , LOW ( 2 * _v1 + ( 1 ) )
0003cd e0f0     +LDI R31 , HIGH ( 2 * _v1 + ( 1 ) )
                 	__POINTW1FN _v1,1
0003ce 01df      	MOVW R26,R30
0003cf 91e0 01f7 	LDS  R30,_j
0003d1 e0f0      	LDI  R31,0
0003d2 0fea      	ADD  R30,R26
0003d3 1ffb      	ADC  R31,R27
0003d4 91e4      	LPM  R30,Z
0003d5 93ea      	ST   -Y,R30
0003d6 dd7c      	RCALL _write_var
                 ;            addr++;
0003d7 e0e1      	LDI  R30,LOW(1)
0003d8 e0f0      	LDI  R31,HIGH(1)
                +
0003d9 0ebe     +ADD R11 , R30
0003da 1ecf     +ADC R12 , R31
                 	__ADDWRR 11,12,30,31
                 ;            check_ab();
0003db de52      	RCALL _check_ab
                 ;        }
0003dc 91e0 01f7 	LDS  R30,_j
0003de 5fef      	SUBI R30,-LOW(1)
0003df 93e0 01f7 	STS  _j,R30
0003e1 cfb1      	RJMP _0x3A
                 _0x3B:
                 ;    }
0003e2 94d3      	INC  R13
0003e3 cf9b      	RJMP _0x37
                 _0x38:
                 ;}
0003e4 9508      	RET
                 
                 	.DSEG
                 _0x35:
000179           	.BYTE 0xC
                 ;#include "encoder.c"
                 ;#define _dir_cnt 4
                 ;#define _dir_cnt2 8
                 ;
                 ;unsigned char dir1 = 1, dir2 = 1, dir_cnt1 = _dir_cnt, dir_cnt2 = _dir_cnt, e11 = 1, e12 = 1, e21 = 1, e22 = 1, enc1 = 0, enc2 = 0;
                 ;
                 ;void inline encoder_main(unsigned char port1, unsigned char pin11, unsigned char pin12, unsigned char port2, unsigned char pin21, unsigned char pin22)
                 ; 0000 005C {
                 
                 	.CSEG
                 _encoder_main:
                 ;    if (TestBit(port1, pin11) && TestBit(port1, pin12))
                 ;	port1 -> Y+5
                 ;	pin11 -> Y+4
                 ;	pin12 -> Y+3
                 ;	port2 -> Y+2
                 ;	pin21 -> Y+1
                 ;	pin22 -> Y+0
0003e5 81ec      	LDD  R30,Y+4
0003e6 81ad      	LDD  R26,Y+5
0003e7 23ea      	AND  R30,R26
0003e8 f019      	BREQ _0x45
0003e9 81eb      	LDD  R30,Y+3
0003ea 23ea      	AND  R30,R26
0003eb f409      	BRNE _0x46
                 _0x45:
0003ec c003      	RJMP _0x44
                 _0x46:
                 ;        e11 = 0;
0003ed e0e0      	LDI  R30,LOW(0)
0003ee 93e0 0208 	STS  _e11,R30
                 ;    if (!TestBit(port1, pin11) && TestBit(port1, pin12))
                 _0x44:
0003f0 81ec      	LDD  R30,Y+4
0003f1 81ad      	LDD  R26,Y+5
0003f2 23ea      	AND  R30,R26
0003f3 f419      	BRNE _0x48
0003f4 81eb      	LDD  R30,Y+3
0003f5 23ea      	AND  R30,R26
0003f6 f409      	BRNE _0x49
                 _0x48:
0003f7 c003      	RJMP _0x47
                 _0x49:
                 ;        e11 = 1;
0003f8 e0e1      	LDI  R30,LOW(1)
0003f9 93e0 0208 	STS  _e11,R30
                 ;    if (!TestBit(port1, pin11) && !TestBit(port1, pin12))
                 _0x47:
0003fb 81ec      	LDD  R30,Y+4
0003fc 81ad      	LDD  R26,Y+5
0003fd 23ea      	AND  R30,R26
0003fe f419      	BRNE _0x4B
0003ff 81eb      	LDD  R30,Y+3
000400 23ea      	AND  R30,R26
000401 f009      	BREQ _0x4C
                 _0x4B:
000402 c003      	RJMP _0x4A
                 _0x4C:
                 ;        e11 = 2;
000403 e0e2      	LDI  R30,LOW(2)
000404 93e0 0208 	STS  _e11,R30
                 ;    if (TestBit(port1, pin11) && !TestBit(port1, pin12))
                 _0x4A:
000406 81ec      	LDD  R30,Y+4
000407 81ad      	LDD  R26,Y+5
000408 23ea      	AND  R30,R26
000409 f019      	BREQ _0x4E
00040a 81eb      	LDD  R30,Y+3
00040b 23ea      	AND  R30,R26
00040c f009      	BREQ _0x4F
                 _0x4E:
00040d c003      	RJMP _0x4D
                 _0x4F:
                 ;        e11 = 3;
00040e e0e3      	LDI  R30,LOW(3)
00040f 93e0 0208 	STS  _e11,R30
                 ;
                 ;    if (TestBit(port2, pin21) && TestBit(port2, pin22))
                 _0x4D:
000411 81e9      	LDD  R30,Y+1
000412 81aa      	LDD  R26,Y+2
000413 23ea      	AND  R30,R26
000414 f019      	BREQ _0x51
000415 81e8      	LD   R30,Y
000416 23ea      	AND  R30,R26
000417 f409      	BRNE _0x52
                 _0x51:
000418 c003      	RJMP _0x50
                 _0x52:
                 ;        e21 = 0;
000419 e0e0      	LDI  R30,LOW(0)
00041a 93e0 020a 	STS  _e21,R30
                 ;    if (!TestBit(port2, pin21) && TestBit(port2, pin22))
                 _0x50:
00041c 81e9      	LDD  R30,Y+1
00041d 81aa      	LDD  R26,Y+2
00041e 23ea      	AND  R30,R26
00041f f419      	BRNE _0x54
000420 81e8      	LD   R30,Y
000421 23ea      	AND  R30,R26
000422 f409      	BRNE _0x55
                 _0x54:
000423 c003      	RJMP _0x53
                 _0x55:
                 ;        e21 = 1;
000424 e0e1      	LDI  R30,LOW(1)
000425 93e0 020a 	STS  _e21,R30
                 ;    if (!TestBit(port2, pin21) && !TestBit(port2, pin22))
                 _0x53:
000427 81e9      	LDD  R30,Y+1
000428 81aa      	LDD  R26,Y+2
000429 23ea      	AND  R30,R26
00042a f419      	BRNE _0x57
00042b 81e8      	LD   R30,Y
00042c 23ea      	AND  R30,R26
00042d f009      	BREQ _0x58
                 _0x57:
00042e c003      	RJMP _0x56
                 _0x58:
                 ;        e21 = 2;
00042f e0e2      	LDI  R30,LOW(2)
000430 93e0 020a 	STS  _e21,R30
                 ;    if (TestBit(port2, pin21) && !TestBit(port2, pin22))
                 _0x56:
000432 81e9      	LDD  R30,Y+1
000433 81aa      	LDD  R26,Y+2
000434 23ea      	AND  R30,R26
000435 f019      	BREQ _0x5A
000436 81e8      	LD   R30,Y
000437 23ea      	AND  R30,R26
000438 f009      	BREQ _0x5B
                 _0x5A:
000439 c003      	RJMP _0x59
                 _0x5B:
                 ;        e21 = 3;
00043a e0e3      	LDI  R30,LOW(3)
00043b 93e0 020a 	STS  _e21,R30
                 ;
                 ;    switch (e12)
                 _0x59:
00043d 91e0 0209 	LDS  R30,_e12
00043f e0f0      	LDI  R31,0
                 ;    {
                 ;        case 0: if (e11 == 1)
000440 9730      	SBIW R30,0
000441 f479      	BRNE _0x5F
000442 91a0 0208 	LDS  R26,_e11
000444 30a1      	CPI  R26,LOW(0x1)
000445 f419      	BRNE _0x60
                 ;                    dir1 = 0;
000446 e0e0      	LDI  R30,LOW(0)
000447 93e0 0204 	STS  _dir1,R30
                 ;                if (e11 == 3)
                 _0x60:
000449 91a0 0208 	LDS  R26,_e11
00044b 30a3      	CPI  R26,LOW(0x3)
00044c f419      	BRNE _0x61
                 ;                    dir1 = 2;
00044d e0e2      	LDI  R30,LOW(2)
00044e 93e0 0204 	STS  _dir1,R30
                 ;                break;
                 _0x61:
000450 c038      	RJMP _0x5E
                 ;        case 1: if (e11 == 2)
                 _0x5F:
000451 30e1      	CPI  R30,LOW(0x1)
000452 e0a0      	LDI  R26,HIGH(0x1)
000453 07fa      	CPC  R31,R26
000454 f479      	BRNE _0x62
000455 91a0 0208 	LDS  R26,_e11
000457 30a2      	CPI  R26,LOW(0x2)
000458 f419      	BRNE _0x63
                 ;                    dir1 = 0;
000459 e0e0      	LDI  R30,LOW(0)
00045a 93e0 0204 	STS  _dir1,R30
                 ;                if (e11 == 0)
                 _0x63:
00045c 91e0 0208 	LDS  R30,_e11
00045e 30e0      	CPI  R30,0
00045f f419      	BRNE _0x64
                 ;                    dir1 = 2;
000460 e0e2      	LDI  R30,LOW(2)
000461 93e0 0204 	STS  _dir1,R30
                 ;                break;
                 _0x64:
000463 c025      	RJMP _0x5E
                 ;        case 2: if (e11 == 3)
                 _0x62:
000464 30e2      	CPI  R30,LOW(0x2)
000465 e0a0      	LDI  R26,HIGH(0x2)
000466 07fa      	CPC  R31,R26
000467 f479      	BRNE _0x65
000468 91a0 0208 	LDS  R26,_e11
00046a 30a3      	CPI  R26,LOW(0x3)
00046b f419      	BRNE _0x66
                 ;                    dir1 = 0;
00046c e0e0      	LDI  R30,LOW(0)
00046d 93e0 0204 	STS  _dir1,R30
                 ;                if (e11 == 1)
                 _0x66:
00046f 91a0 0208 	LDS  R26,_e11
000471 30a1      	CPI  R26,LOW(0x1)
000472 f419      	BRNE _0x67
                 ;                    dir1 = 2;
000473 e0e2      	LDI  R30,LOW(2)
000474 93e0 0204 	STS  _dir1,R30
                 ;                break;
                 _0x67:
000476 c012      	RJMP _0x5E
                 ;        case 3: if (e11 == 0)
                 _0x65:
000477 30e3      	CPI  R30,LOW(0x3)
000478 e0a0      	LDI  R26,HIGH(0x3)
000479 07fa      	CPC  R31,R26
00047a f471      	BRNE _0x5E
00047b 91e0 0208 	LDS  R30,_e11
00047d 30e0      	CPI  R30,0
00047e f419      	BRNE _0x69
                 ;                    dir1 = 0;
00047f e0e0      	LDI  R30,LOW(0)
000480 93e0 0204 	STS  _dir1,R30
                 ;                if (e11 == 2)
                 _0x69:
000482 91a0 0208 	LDS  R26,_e11
000484 30a2      	CPI  R26,LOW(0x2)
000485 f419      	BRNE _0x6A
                 ;                    dir1 = 2;
000486 e0e2      	LDI  R30,LOW(2)
000487 93e0 0204 	STS  _dir1,R30
                 ;                break;
                 _0x6A:
                 ;    }
                 _0x5E:
                 ;
                 ;    switch (e22)
000489 91e0 020b 	LDS  R30,_e22
00048b e0f0      	LDI  R31,0
                 ;    {
                 ;        case 0: if (e21 == 1)
00048c 9730      	SBIW R30,0
00048d f479      	BRNE _0x6E
00048e 91a0 020a 	LDS  R26,_e21
000490 30a1      	CPI  R26,LOW(0x1)
000491 f419      	BRNE _0x6F
                 ;                    dir2 = 0;
000492 e0e0      	LDI  R30,LOW(0)
000493 93e0 0205 	STS  _dir2,R30
                 ;                if (e21 == 3)
                 _0x6F:
000495 91a0 020a 	LDS  R26,_e21
000497 30a3      	CPI  R26,LOW(0x3)
000498 f419      	BRNE _0x70
                 ;                    dir2 = 2;
000499 e0e2      	LDI  R30,LOW(2)
00049a 93e0 0205 	STS  _dir2,R30
                 ;                break;
                 _0x70:
00049c c038      	RJMP _0x6D
                 ;        case 1: if (e21 == 2)
                 _0x6E:
00049d 30e1      	CPI  R30,LOW(0x1)
00049e e0a0      	LDI  R26,HIGH(0x1)
00049f 07fa      	CPC  R31,R26
0004a0 f479      	BRNE _0x71
0004a1 91a0 020a 	LDS  R26,_e21
0004a3 30a2      	CPI  R26,LOW(0x2)
0004a4 f419      	BRNE _0x72
                 ;                    dir2 = 0;
0004a5 e0e0      	LDI  R30,LOW(0)
0004a6 93e0 0205 	STS  _dir2,R30
                 ;                if (e21 == 0)
                 _0x72:
0004a8 91e0 020a 	LDS  R30,_e21
0004aa 30e0      	CPI  R30,0
0004ab f419      	BRNE _0x73
                 ;                    dir2 = 2;
0004ac e0e2      	LDI  R30,LOW(2)
0004ad 93e0 0205 	STS  _dir2,R30
                 ;                break;
                 _0x73:
0004af c025      	RJMP _0x6D
                 ;        case 2: if (e21 == 3)
                 _0x71:
0004b0 30e2      	CPI  R30,LOW(0x2)
0004b1 e0a0      	LDI  R26,HIGH(0x2)
0004b2 07fa      	CPC  R31,R26
0004b3 f479      	BRNE _0x74
0004b4 91a0 020a 	LDS  R26,_e21
0004b6 30a3      	CPI  R26,LOW(0x3)
0004b7 f419      	BRNE _0x75
                 ;                    dir2 = 0;
0004b8 e0e0      	LDI  R30,LOW(0)
0004b9 93e0 0205 	STS  _dir2,R30
                 ;                if (e21 == 1)
                 _0x75:
0004bb 91a0 020a 	LDS  R26,_e21
0004bd 30a1      	CPI  R26,LOW(0x1)
0004be f419      	BRNE _0x76
                 ;                    dir2 = 2;
0004bf e0e2      	LDI  R30,LOW(2)
0004c0 93e0 0205 	STS  _dir2,R30
                 ;                break;
                 _0x76:
0004c2 c012      	RJMP _0x6D
                 ;        case 3: if (e21 == 0)
                 _0x74:
0004c3 30e3      	CPI  R30,LOW(0x3)
0004c4 e0a0      	LDI  R26,HIGH(0x3)
0004c5 07fa      	CPC  R31,R26
0004c6 f471      	BRNE _0x6D
0004c7 91e0 020a 	LDS  R30,_e21
0004c9 30e0      	CPI  R30,0
0004ca f419      	BRNE _0x78
                 ;                    dir2 = 0;
0004cb e0e0      	LDI  R30,LOW(0)
0004cc 93e0 0205 	STS  _dir2,R30
                 ;                if (e21 == 2)
                 _0x78:
0004ce 91a0 020a 	LDS  R26,_e21
0004d0 30a2      	CPI  R26,LOW(0x2)
0004d1 f419      	BRNE _0x79
                 ;                    dir2 = 2;
0004d2 e0e2      	LDI  R30,LOW(2)
0004d3 93e0 0205 	STS  _dir2,R30
                 ;                break;
                 _0x79:
                 ;    }
                 _0x6D:
                 ;
                 ;    e12 = e11;
0004d5 91e0 0208 	LDS  R30,_e11
0004d7 93e0 0209 	STS  _e12,R30
                 ;    e22 = e21;
0004d9 91e0 020a 	LDS  R30,_e21
0004db 93e0 020b 	STS  _e22,R30
                 ;}
0004dd 9626      	ADIW R28,6
0004de 9508      	RET
                 ;
                 ;#define max_speed 40000
                 ;#define min_speed   500
                 ;#define dividor_speed 500
                 ;
                 ;//3,4,5
                 ;#define port_sh PORTD
                 ;#define pin_sh  0x08
                 ;#define pin_st  0x10
                 ;#define pin_d   0x20
                 ;
                 ;#define pin_pwm 0x40
                 ;
                 ;#define PWM_step 0xFF
                 ;
                 ;#define scan_speed1 7000
                 ;#define scan_speed2 7000
                 ;
                 ;unsigned char pwm_cnt = 0;
                 ;
                 ;unsigned char scan_mode = 1, last_mode = 0;
                 
                 	.DSEG
                 ;bit edit_mode = 0;
                 ;unsigned char scan_cnt = 0;
                 ;bit chorus = 0;
                 ;bit multiplexor = 0;
                 ;bit ch_speed = 0;
                 ;bit ch_on = 1;
                 ;unsigned int scan_speed = 7000, tmp_speed = 0;
                 ;unsigned char out = 0, out2 = 0;
                 ;
                 ;unsigned char e_preset = 0, e_item = 0, e_out = 0, e_mode = 0;
                 ;bit e_save = 0;
                 ;bit e_preview = 0;
                 ;t_pattern e_patt;
                 ;
                 ;t_pattern patt;
                 ;
                 ;void shift_out(unsigned char data)
                 ; 0000 0083 {
                 
                 	.CSEG
                 _shift_out:
                 ; 0000 0084 	ClrBit(port_sh, pin_st);
                 ;	data -> Y+0
0004df 9894      	CBI  0x12,4
                 ; 0000 0085     ClrBit(port_sh, pin_sh);
0004e0 9893      	CBI  0x12,3
                 ; 0000 0086 
                 ; 0000 0087     delay_us(1000);
                +
0004e1 eb88     +LDI R24 , LOW ( 3000 )
0004e2 e09b     +LDI R25 , HIGH ( 3000 )
                +__DELAY_USW_LOOP :
0004e3 9701     +SBIW R24 , 1
0004e4 f7f1     +BRNE __DELAY_USW_LOOP
                 	__DELAY_USW 3000
                 ; 0000 0088 
                 ; 0000 0089 	for(i = 0; i < 8; i++)
0004e5 24dd      	CLR  R13
                 _0x7D:
0004e6 e0e8      	LDI  R30,LOW(8)
0004e7 16de      	CP   R13,R30
0004e8 f4a8      	BRSH _0x7E
                 ; 0000 008A 	{
                 ; 0000 008B 		if(data & 0x80)
0004e9 81e8      	LD   R30,Y
0004ea 78e0      	ANDI R30,LOW(0x80)
0004eb f011      	BREQ _0x7F
                 ; 0000 008C 			SetBit(port_sh, pin_d);
0004ec 9a95      	SBI  0x12,5
                 ; 0000 008D 		else
0004ed c001      	RJMP _0x80
                 _0x7F:
                 ; 0000 008E 			ClrBit(port_sh, pin_d);
0004ee 9895      	CBI  0x12,5
                 ; 0000 008F 
                 ; 0000 0090 		delay_us(1000);
                 _0x80:
                +
0004ef eb88     +LDI R24 , LOW ( 3000 )
0004f0 e09b     +LDI R25 , HIGH ( 3000 )
                +__DELAY_USW_LOOP :
0004f1 9701     +SBIW R24 , 1
0004f2 f7f1     +BRNE __DELAY_USW_LOOP
                 	__DELAY_USW 3000
                 ; 0000 0091 		SetBit(port_sh, pin_sh);
0004f3 9a93      	SBI  0x12,3
                 ; 0000 0092 
                 ; 0000 0093 		delay_us(1000);
                +
0004f4 eb88     +LDI R24 , LOW ( 3000 )
0004f5 e09b     +LDI R25 , HIGH ( 3000 )
                +__DELAY_USW_LOOP :
0004f6 9701     +SBIW R24 , 1
0004f7 f7f1     +BRNE __DELAY_USW_LOOP
                 	__DELAY_USW 3000
                 ; 0000 0094 		ClrBit(port_sh, pin_sh);
0004f8 9893      	CBI  0x12,3
                 ; 0000 0095 		data <<= 1;
0004f9 81e8      	LD   R30,Y
0004fa 0fee      	LSL  R30
0004fb 83e8      	ST   Y,R30
                 ; 0000 0096 	}
0004fc 94d3      	INC  R13
0004fd cfe8      	RJMP _0x7D
                 _0x7E:
                 ; 0000 0097     delay_us(1000);
                +
0004fe eb88     +LDI R24 , LOW ( 3000 )
0004ff e09b     +LDI R25 , HIGH ( 3000 )
                +__DELAY_USW_LOOP :
000500 9701     +SBIW R24 , 1
000501 f7f1     +BRNE __DELAY_USW_LOOP
                 	__DELAY_USW 3000
                 ; 0000 0098     SetBit(port_sh, pin_st);
000502 9a94      	SBI  0x12,4
                 ; 0000 0099 }
000503 9621      	ADIW R28,1
000504 9508      	RET
                 ;
                 ;
                 ;void lcd_out()
                 ; 0000 009D {
                 _lcd_out:
                 ; 0000 009E     lcd_clear();
000505 940e 0c21 	CALL _lcd_clear
                 ; 0000 009F 
                 ; 0000 00A0     if (!edit_mode)
000507 fc20      	SBRC R2,0
000508 c0b2      	RJMP _0x81
                 ; 0000 00A1     {
                 ; 0000 00A2         lcd_puts("Mode");
                +
000509 e8e5     +LDI R30 , LOW ( _0x82 + ( 0 ) )
00050a e0f1     +LDI R31 , HIGH ( _0x82 + ( 0 ) )
                 	__POINTW1MN _0x82,0
00050b 93fa      	ST   -Y,R31
00050c 93ea      	ST   -Y,R30
00050d 940e 0c60 	CALL _lcd_puts
                 ; 0000 00A3         lcd_gotoxy(11, 0);
00050f e0eb      	LDI  R30,LOW(11)
000510 93ea      	ST   -Y,R30
000511 e0e0      	LDI  R30,LOW(0)
000512 93ea      	ST   -Y,R30
000513 940e 0c0d 	CALL _lcd_gotoxy
                 ; 0000 00A4         lcd_puts("Speed");
                +
000515 e8ea     +LDI R30 , LOW ( _0x82 + ( 5 ) )
000516 e0f1     +LDI R31 , HIGH ( _0x82 + ( 5 ) )
                 	__POINTW1MN _0x82,5
000517 93fa      	ST   -Y,R31
000518 93ea      	ST   -Y,R30
000519 940e 0c60 	CALL _lcd_puts
                 ; 0000 00A5 
                 ; 0000 00A6         if (scan_mode < 4)
00051b 91a0 020f 	LDS  R26,_scan_mode
00051d 30a4      	CPI  R26,LOW(0x4)
00051e f5d0      	BRSH _0x83
                 ; 0000 00A7         {
                 ; 0000 00A8             lcd_gotoxy(0, 1);
00051f e0e0      	LDI  R30,LOW(0)
000520 93ea      	ST   -Y,R30
000521 e0e1      	LDI  R30,LOW(1)
000522 93ea      	ST   -Y,R30
000523 940e 0c0d 	CALL _lcd_gotoxy
                 ; 0000 00A9             if (scan_mode > 1)  lcd_putchar(0); else    lcd_putchar(' ');
000525 91a0 020f 	LDS  R26,_scan_mode
000527 30a2      	CPI  R26,LOW(0x2)
000528 f010      	BRLO _0x84
000529 e0e0      	LDI  R30,LOW(0)
00052a c001      	RJMP _0x152
                 _0x84:
00052b e2e0      	LDI  R30,LOW(32)
                 _0x152:
00052c 93ea      	ST   -Y,R30
00052d 940e 0c39 	CALL _lcd_putchar
                 ; 0000 00AA             if (chorus) lcd_putchar('C');   else    lcd_putchar('V');
00052f fe21      	SBRS R2,1
000530 c002      	RJMP _0x86
000531 e4e3      	LDI  R30,LOW(67)
000532 c001      	RJMP _0x153
                 _0x86:
000533 e5e6      	LDI  R30,LOW(86)
                 _0x153:
000534 93ea      	ST   -Y,R30
000535 940e 0c39 	CALL _lcd_putchar
                 ; 0000 00AB             LCDWriteInt(scan_mode, 0);
000537 91e0 020f 	LDS  R30,_scan_mode
000539 e0f0      	LDI  R31,0
00053a 93fa      	ST   -Y,R31
00053b 93ea      	ST   -Y,R30
00053c e0e0      	LDI  R30,LOW(0)
00053d 93ea      	ST   -Y,R30
00053e dc72      	RCALL _LCDWriteInt
                 ; 0000 00AC             if (ch_on)
00053f fe24      	SBRS R2,4
000540 c011      	RJMP _0x88
                 ; 0000 00AD             {
                 ; 0000 00AE                 if (scan_mode < 3)  lcd_putchar(1); else    lcd_putchar(' ');
000541 91a0 020f 	LDS  R26,_scan_mode
000543 30a3      	CPI  R26,LOW(0x3)
000544 f410      	BRSH _0x89
000545 e0e1      	LDI  R30,LOW(1)
000546 c001      	RJMP _0x154
                 _0x89:
000547 e2e0      	LDI  R30,LOW(32)
                 _0x154:
000548 93ea      	ST   -Y,R30
000549 940e 0c39 	CALL _lcd_putchar
                 ; 0000 00AF                 lcd_gotoxy(11, 1);
00054b e0eb      	LDI  R30,LOW(11)
00054c 93ea      	ST   -Y,R30
00054d e0e1      	LDI  R30,LOW(1)
00054e 93ea      	ST   -Y,R30
00054f 940e 0c0d 	CALL _lcd_gotoxy
                 ; 0000 00B0             }
                 ; 0000 00B1             else
000551 c006      	RJMP _0x8B
                 _0x88:
                 ; 0000 00B2                 lcd_puts("Off");
                +
000552 e9e0     +LDI R30 , LOW ( _0x82 + ( 11 ) )
000553 e0f1     +LDI R31 , HIGH ( _0x82 + ( 11 ) )
                 	__POINTW1MN _0x82,11
000554 93fa      	ST   -Y,R31
000555 93ea      	ST   -Y,R30
000556 940e 0c60 	CALL _lcd_puts
                 ; 0000 00B3         }
                 _0x8B:
                 ; 0000 00B4         else
000558 c033      	RJMP _0x8C
                 _0x83:
                 ; 0000 00B5         {
                 ; 0000 00B6             lcd_gotoxy(0, 1);
000559 e0e0      	LDI  R30,LOW(0)
00055a 93ea      	ST   -Y,R30
00055b e0e1      	LDI  R30,LOW(1)
00055c 93ea      	ST   -Y,R30
00055d 940e 0c0d 	CALL _lcd_gotoxy
                 ; 0000 00B7             lcd_puts(t_preset);
00055f efe8      	LDI  R30,LOW(_t_preset)
000560 e0f1      	LDI  R31,HIGH(_t_preset)
000561 93fa      	ST   -Y,R31
000562 93ea      	ST   -Y,R30
000563 940e 0c60 	CALL _lcd_puts
                 ; 0000 00B8             if (current_pattern > 0)  lcd_putchar(0); else    lcd_putchar(' ');
000565 e0e0      	LDI  R30,LOW(0)
000566 15e7      	CP   R30,R7
000567 f408      	BRSH _0x8D
000568 c001      	RJMP _0x155
                 _0x8D:
000569 e2e0      	LDI  R30,LOW(32)
                 _0x155:
00056a 93ea      	ST   -Y,R30
00056b 940e 0c39 	CALL _lcd_putchar
                 ; 0000 00B9             if (chorus) lcd_putchar('C');   else    lcd_putchar('V');
00056d fe21      	SBRS R2,1
00056e c002      	RJMP _0x8F
00056f e4e3      	LDI  R30,LOW(67)
000570 c001      	RJMP _0x156
                 _0x8F:
000571 e5e6      	LDI  R30,LOW(86)
                 _0x156:
000572 93ea      	ST   -Y,R30
000573 940e 0c39 	CALL _lcd_putchar
                 ; 0000 00BA             LCDWriteInt(current_pattern+1, 0);
000575 2de7      	MOV  R30,R7
000576 e0f0      	LDI  R31,0
000577 9631      	ADIW R30,1
000578 93fa      	ST   -Y,R31
000579 93ea      	ST   -Y,R30
00057a e0e0      	LDI  R30,LOW(0)
00057b 93ea      	ST   -Y,R30
00057c dc34      	RCALL _LCDWriteInt
                 ; 0000 00BB             if (current_pattern < MAX_PATTERNS-1)  lcd_putchar(1); else    lcd_putchar(' ');
00057d e0e7      	LDI  R30,LOW(7)
00057e 167e      	CP   R7,R30
00057f f410      	BRSH _0x91
000580 e0e1      	LDI  R30,LOW(1)
000581 c001      	RJMP _0x157
                 _0x91:
000582 e2e0      	LDI  R30,LOW(32)
                 _0x157:
000583 93ea      	ST   -Y,R30
000584 940e 0c39 	CALL _lcd_putchar
                 ; 0000 00BC             lcd_gotoxy(11, 1);
000586 e0eb      	LDI  R30,LOW(11)
000587 93ea      	ST   -Y,R30
000588 e0e1      	LDI  R30,LOW(1)
000589 93ea      	ST   -Y,R30
00058a 940e 0c0d 	CALL _lcd_gotoxy
                 ; 0000 00BD         }
                 _0x8C:
                 ; 0000 00BE 
                 ; 0000 00BF         if (scan_speed < max_speed)  lcd_putchar(0); else    lcd_putchar(' ');
00058c 91a0 0212 	LDS  R26,_scan_speed
00058e 91b0 0213 	LDS  R27,_scan_speed+1
000590 34a0      	CPI  R26,LOW(0x9C40)
000591 e9ec      	LDI  R30,HIGH(0x9C40)
000592 07be      	CPC  R27,R30
000593 f410      	BRSH _0x93
000594 e0e0      	LDI  R30,LOW(0)
000595 c001      	RJMP _0x158
                 _0x93:
000596 e2e0      	LDI  R30,LOW(32)
                 _0x158:
000597 93ea      	ST   -Y,R30
000598 940e 0c39 	CALL _lcd_putchar
                 ; 0000 00C0         LCDWriteInt((max_speed - scan_speed)/dividor_speed, 0);
00059a 91a0 0212 	LDS  R26,_scan_speed
00059c 91b0 0213 	LDS  R27,_scan_speed+1
00059e e4e0      	LDI  R30,LOW(40000)
00059f e9fc      	LDI  R31,HIGH(40000)
0005a0 1bea      	SUB  R30,R26
0005a1 0bfb      	SBC  R31,R27
0005a2 01df      	MOVW R26,R30
0005a3 efe4      	LDI  R30,LOW(500)
0005a4 e0f1      	LDI  R31,HIGH(500)
0005a5 940e 0d1e 	CALL __DIVW21U
0005a7 93fa      	ST   -Y,R31
0005a8 93ea      	ST   -Y,R30
0005a9 e0e0      	LDI  R30,LOW(0)
0005aa 93ea      	ST   -Y,R30
0005ab dc05      	RCALL _LCDWriteInt
                 ; 0000 00C1         if (scan_speed > min_speed)  lcd_putchar(1); else    lcd_putchar(' ');
0005ac 91a0 0212 	LDS  R26,_scan_speed
0005ae 91b0 0213 	LDS  R27,_scan_speed+1
0005b0 3fa5      	CPI  R26,LOW(0x1F5)
0005b1 e0e1      	LDI  R30,HIGH(0x1F5)
0005b2 07be      	CPC  R27,R30
0005b3 f010      	BRLO _0x95
0005b4 e0e1      	LDI  R30,LOW(1)
0005b5 c001      	RJMP _0x159
                 _0x95:
0005b6 e2e0      	LDI  R30,LOW(32)
                 _0x159:
0005b7 93ea      	ST   -Y,R30
0005b8 940e 0c39 	CALL _lcd_putchar
                 ; 0000 00C2     }
                 ; 0000 00C3     else
0005ba c0b3      	RJMP _0x97
                 _0x81:
                 ; 0000 00C4     {
                 ; 0000 00C5         lcd_puts("Edit ");
                +
0005bb e9e4     +LDI R30 , LOW ( _0x82 + ( 15 ) )
0005bc e0f1     +LDI R31 , HIGH ( _0x82 + ( 15 ) )
                 	__POINTW1MN _0x82,15
0005bd 93fa      	ST   -Y,R31
0005be 93ea      	ST   -Y,R30
0005bf 940e 0c60 	CALL _lcd_puts
                 ; 0000 00C6         lcd_puts(t_preset);
0005c1 efe8      	LDI  R30,LOW(_t_preset)
0005c2 e0f1      	LDI  R31,HIGH(_t_preset)
0005c3 93fa      	ST   -Y,R31
0005c4 93ea      	ST   -Y,R30
0005c5 940e 0c60 	CALL _lcd_puts
                 ; 0000 00C7         if (e_preset > 0 && e_mode==0)  lcd_putchar(0); else    lcd_putchar(' ');
0005c7 91a0 0218 	LDS  R26,_e_preset
0005c9 30a1      	CPI  R26,LOW(0x1)
0005ca f020      	BRLO _0x99
0005cb 91a0 021b 	LDS  R26,_e_mode
0005cd 30a0      	CPI  R26,LOW(0x0)
0005ce f009      	BREQ _0x9A
                 _0x99:
0005cf c002      	RJMP _0x98
                 _0x9A:
0005d0 e0e0      	LDI  R30,LOW(0)
0005d1 c001      	RJMP _0x15A
                 _0x98:
0005d2 e2e0      	LDI  R30,LOW(32)
                 _0x15A:
0005d3 93ea      	ST   -Y,R30
0005d4 940e 0c39 	CALL _lcd_putchar
                 ; 0000 00C8         LCDWriteInt(e_preset+1, 0);
0005d6 91e0 0218 	LDS  R30,_e_preset
0005d8 e0f0      	LDI  R31,0
0005d9 9631      	ADIW R30,1
0005da 93fa      	ST   -Y,R31
0005db 93ea      	ST   -Y,R30
0005dc e0e0      	LDI  R30,LOW(0)
0005dd 93ea      	ST   -Y,R30
0005de dbd2      	RCALL _LCDWriteInt
                 ; 0000 00C9         if (e_preset < MAX_PATTERNS-1 && e_mode==0)  lcd_putchar(1); else    lcd_putchar(' ');
0005df 91a0 0218 	LDS  R26,_e_preset
0005e1 30a7      	CPI  R26,LOW(0x7)
0005e2 f420      	BRSH _0x9D
0005e3 91a0 021b 	LDS  R26,_e_mode
0005e5 30a0      	CPI  R26,LOW(0x0)
0005e6 f009      	BREQ _0x9E
                 _0x9D:
0005e7 c002      	RJMP _0x9C
                 _0x9E:
0005e8 e0e1      	LDI  R30,LOW(1)
0005e9 c001      	RJMP _0x15B
                 _0x9C:
0005ea e2e0      	LDI  R30,LOW(32)
                 _0x15B:
0005eb 93ea      	ST   -Y,R30
0005ec 940e 0c39 	CALL _lcd_putchar
                 ; 0000 00CA         lcd_putchar(' ');
0005ee e2e0      	LDI  R30,LOW(32)
0005ef 93ea      	ST   -Y,R30
0005f0 940e 0c39 	CALL _lcd_putchar
                 ; 0000 00CB         if (e_save) lcd_putchar('*');
0005f2 fe25      	SBRS R2,5
0005f3 c004      	RJMP _0xA0
0005f4 e2ea      	LDI  R30,LOW(42)
0005f5 93ea      	ST   -Y,R30
0005f6 940e 0c39 	CALL _lcd_putchar
                 ; 0000 00CC 
                 ; 0000 00CD         lcd_gotoxy(0, 1);
                 _0xA0:
0005f8 e0e0      	LDI  R30,LOW(0)
0005f9 93ea      	ST   -Y,R30
0005fa e0e1      	LDI  R30,LOW(1)
0005fb 93ea      	ST   -Y,R30
0005fc 940e 0c0d 	CALL _lcd_gotoxy
                 ; 0000 00CE         lcd_puts(t_item);
0005fe efef      	LDI  R30,LOW(_t_item)
0005ff e0f1      	LDI  R31,HIGH(_t_item)
000600 93fa      	ST   -Y,R31
000601 93ea      	ST   -Y,R30
000602 940e 0c60 	CALL _lcd_puts
                 ; 0000 00CF         if (e_item > 0 && e_mode==1)  lcd_putchar(0); else    lcd_putchar(' ');
000604 91a0 0219 	LDS  R26,_e_item
000606 30a1      	CPI  R26,LOW(0x1)
000607 f020      	BRLO _0xA2
000608 91a0 021b 	LDS  R26,_e_mode
00060a 30a1      	CPI  R26,LOW(0x1)
00060b f009      	BREQ _0xA3
                 _0xA2:
00060c c002      	RJMP _0xA1
                 _0xA3:
00060d e0e0      	LDI  R30,LOW(0)
00060e c001      	RJMP _0x15C
                 _0xA1:
00060f e2e0      	LDI  R30,LOW(32)
                 _0x15C:
000610 93ea      	ST   -Y,R30
000611 940e 0c39 	CALL _lcd_putchar
                 ; 0000 00D0         LCDWriteInt(e_item+1, 2);
000613 91e0 0219 	LDS  R30,_e_item
000615 e0f0      	LDI  R31,0
000616 9631      	ADIW R30,1
000617 93fa      	ST   -Y,R31
000618 93ea      	ST   -Y,R30
000619 e0e2      	LDI  R30,LOW(2)
00061a 93ea      	ST   -Y,R30
00061b db95      	RCALL _LCDWriteInt
                 ; 0000 00D1         if (e_item < MAX_ITEMS-1 && e_mode==1 && e_out > 0)  lcd_putchar(1); else    lcd_putchar(' ');
00061c 91a0 0219 	LDS  R26,_e_item
00061e 31ad      	CPI  R26,LOW(0x1D)
00061f f440      	BRSH _0xA6
000620 91a0 021b 	LDS  R26,_e_mode
000622 30a1      	CPI  R26,LOW(0x1)
000623 f421      	BRNE _0xA6
000624 91a0 021a 	LDS  R26,_e_out
000626 30a1      	CPI  R26,LOW(0x1)
000627 f408      	BRSH _0xA7
                 _0xA6:
000628 c002      	RJMP _0xA5
                 _0xA7:
000629 e0e1      	LDI  R30,LOW(1)
00062a c001      	RJMP _0x15D
                 _0xA5:
00062b e2e0      	LDI  R30,LOW(32)
                 _0x15D:
00062c 93ea      	ST   -Y,R30
00062d 940e 0c39 	CALL _lcd_putchar
                 ; 0000 00D2         if (e_out > 0) lcd_putchar(' ');
00062f 91a0 021a 	LDS  R26,_e_out
000631 30a1      	CPI  R26,LOW(0x1)
000632 f020      	BRLO _0xA9
000633 e2e0      	LDI  R30,LOW(32)
000634 93ea      	ST   -Y,R30
000635 940e 0c39 	CALL _lcd_putchar
                 ; 0000 00D3 
                 ; 0000 00D4         lcd_puts("Out");
                 _0xA9:
                +
000637 e9ea     +LDI R30 , LOW ( _0x82 + ( 21 ) )
000638 e0f1     +LDI R31 , HIGH ( _0x82 + ( 21 ) )
                 	__POINTW1MN _0x82,21
000639 93fa      	ST   -Y,R31
00063a 93ea      	ST   -Y,R30
00063b 940e 0c60 	CALL _lcd_puts
                 ; 0000 00D5         if (e_out > 0 && e_mode==2)  lcd_putchar(0); else  lcd_putchar(' ');
00063d 91a0 021a 	LDS  R26,_e_out
00063f 30a1      	CPI  R26,LOW(0x1)
000640 f020      	BRLO _0xAB
000641 91a0 021b 	LDS  R26,_e_mode
000643 30a2      	CPI  R26,LOW(0x2)
000644 f009      	BREQ _0xAC
                 _0xAB:
000645 c002      	RJMP _0xAA
                 _0xAC:
000646 e0e0      	LDI  R30,LOW(0)
000647 c001      	RJMP _0x15E
                 _0xAA:
000648 e2e0      	LDI  R30,LOW(32)
                 _0x15E:
000649 93ea      	ST   -Y,R30
00064a 940e 0c39 	CALL _lcd_putchar
                 ; 0000 00D6         if (e_out > 0) LCDWriteInt(e_out, 2);   else    lcd_puts("OFF");
00064c 91a0 021a 	LDS  R26,_e_out
00064e 30a1      	CPI  R26,LOW(0x1)
00064f f048      	BRLO _0xAE
000650 91e0 021a 	LDS  R30,_e_out
000652 e0f0      	LDI  R31,0
000653 93fa      	ST   -Y,R31
000654 93ea      	ST   -Y,R30
000655 e0e2      	LDI  R30,LOW(2)
000656 93ea      	ST   -Y,R30
000657 db59      	RCALL _LCDWriteInt
000658 c006      	RJMP _0xAF
                 _0xAE:
                +
000659 e9ee     +LDI R30 , LOW ( _0x82 + ( 25 ) )
00065a e0f1     +LDI R31 , HIGH ( _0x82 + ( 25 ) )
                 	__POINTW1MN _0x82,25
00065b 93fa      	ST   -Y,R31
00065c 93ea      	ST   -Y,R30
00065d 940e 0c60 	CALL _lcd_puts
                 ; 0000 00D7         if (e_out < MAX_OUT && e_mode==2)  lcd_putchar(1); else    lcd_putchar(' ');
                 _0xAF:
00065f 91a0 021a 	LDS  R26,_e_out
000661 31a0      	CPI  R26,LOW(0x10)
000662 f420      	BRSH _0xB1
000663 91a0 021b 	LDS  R26,_e_mode
000665 30a2      	CPI  R26,LOW(0x2)
000666 f009      	BREQ _0xB2
                 _0xB1:
000667 c002      	RJMP _0xB0
                 _0xB2:
000668 e0e1      	LDI  R30,LOW(1)
000669 c001      	RJMP _0x15F
                 _0xB0:
00066a e2e0      	LDI  R30,LOW(32)
                 _0x15F:
00066b 93ea      	ST   -Y,R30
00066c 940e 0c39 	CALL _lcd_putchar
                 ; 0000 00D8     }
                 _0x97:
                 ; 0000 00D9 }
00066e 9508      	RET
                 
                 	.DSEG
                 _0x82:
000185           	.BYTE 0x1D
                 ;
                 ;#include "keys.c"
                 ;//ñòðåëêè
                 ;flash unsigned char arrow_left[8] =  {0x00, 0x00, 0x02, 0x06, 0x0E, 0x06, 0x02, 0x00};
                 ;flash unsigned char arrow_right[8] = {0x00, 0x00, 0x08, 0x0C, 0x0E, 0x0C, 0x08, 0x00};
                 ;
                 ;// External Interrupt 1 service routine
                 ;interrupt [EXT_INT0] void ext_int0_isr(void)
                 ; 0000 00DB {
                 
                 	.CSEG
                 _ext_int0_isr:
00066f 920a      	ST   -Y,R0
000670 921a      	ST   -Y,R1
000671 92fa      	ST   -Y,R15
000672 936a      	ST   -Y,R22
000673 937a      	ST   -Y,R23
000674 938a      	ST   -Y,R24
000675 939a      	ST   -Y,R25
000676 93aa      	ST   -Y,R26
000677 93ba      	ST   -Y,R27
000678 93ea      	ST   -Y,R30
000679 93fa      	ST   -Y,R31
00067a b7ef      	IN   R30,SREG
00067b 93ea      	ST   -Y,R30
                 ;// Place your code here
                 ;    if (ch_speed)
00067c fe23      	SBRS R2,3
00067d c00e      	RJMP _0xB4
                 ;        return;
00067e 91e9      	LD   R30,Y+
00067f bfef      	OUT  SREG,R30
000680 91f9      	LD   R31,Y+
000681 91e9      	LD   R30,Y+
000682 91b9      	LD   R27,Y+
000683 91a9      	LD   R26,Y+
000684 9199      	LD   R25,Y+
000685 9189      	LD   R24,Y+
000686 9179      	LD   R23,Y+
000687 9169      	LD   R22,Y+
000688 90f9      	LD   R15,Y+
000689 9019      	LD   R1,Y+
00068a 9009      	LD   R0,Y+
00068b 9518      	RETI
                 ;//---------------------Rotate left---------------------------
                 ;    if (!TestBit(PINA, 0b01000000))
                 _0xB4:
00068c 99ce      	SBIC 0x19,6
00068d c19f      	RJMP _0xB5
                 ;    {
                 ;        if (!edit_mode)
00068e fc20      	SBRC R2,0
00068f c047      	RJMP _0xB6
                 ;        {
                 ;            if (enc1 && scan_mode > 1 && scan_mode < 4)
000690 91e0 020c 	LDS  R30,_enc1
000692 30e0      	CPI  R30,0
000693 f031      	BREQ _0xB8
000694 91a0 020f 	LDS  R26,_scan_mode
000696 30a2      	CPI  R26,LOW(0x2)
000697 f010      	BRLO _0xB8
000698 30a4      	CPI  R26,LOW(0x4)
000699 f008      	BRLO _0xB9
                 _0xB8:
00069a c005      	RJMP _0xB7
                 _0xB9:
                 ;                scan_mode--;
00069b 91e0 020f 	LDS  R30,_scan_mode
00069d 50e1      	SUBI R30,LOW(1)
00069e 93e0 020f 	STS  _scan_mode,R30
                 ;            if (!enc1 && scan_mode < 3)
                 _0xB7:
0006a0 91e0 020c 	LDS  R30,_enc1
0006a2 30e0      	CPI  R30,0
0006a3 f421      	BRNE _0xBB
0006a4 91a0 020f 	LDS  R26,_scan_mode
0006a6 30a3      	CPI  R26,LOW(0x3)
0006a7 f008      	BRLO _0xBC
                 _0xBB:
0006a8 c005      	RJMP _0xBA
                 _0xBC:
                 ;                scan_mode++;
0006a9 91e0 020f 	LDS  R30,_scan_mode
0006ab 5fef      	SUBI R30,-LOW(1)
0006ac 93e0 020f 	STS  _scan_mode,R30
                 ;
                 ;            if (!enc1 && scan_mode == 4 && current_pattern > 0)
                 _0xBA:
0006ae 91e0 020c 	LDS  R30,_enc1
0006b0 30e0      	CPI  R30,0
0006b1 f439      	BRNE _0xBE
0006b2 91a0 020f 	LDS  R26,_scan_mode
0006b4 30a4      	CPI  R26,LOW(0x4)
0006b5 f419      	BRNE _0xBE
0006b6 e0e0      	LDI  R30,LOW(0)
0006b7 15e7      	CP   R30,R7
0006b8 f008      	BRLO _0xBF
                 _0xBE:
0006b9 c008      	RJMP _0xBD
                 _0xBF:
                 ;            {
                 ;                current_pattern--;
0006ba 947a      	DEC  R7
                 ;                patt = read_pattern(current_pattern);
0006bb 927a      	ST   -Y,R7
0006bc dbf8      	RCALL _read_pattern
0006bd e3ab      	LDI  R26,LOW(_patt)
0006be e0b2      	LDI  R27,HIGH(_patt)
0006bf 940e 0d3c 	CALL __COPYMML
0006c1 be1f      	OUT  SREG,R1
                 ;            }
                 ;            if (enc1 && scan_mode == 4 && current_pattern < MAX_PATTERNS-1)
                 _0xBD:
0006c2 91e0 020c 	LDS  R30,_enc1
0006c4 30e0      	CPI  R30,0
0006c5 f039      	BREQ _0xC1
0006c6 91a0 020f 	LDS  R26,_scan_mode
0006c8 30a4      	CPI  R26,LOW(0x4)
0006c9 f419      	BRNE _0xC1
0006ca e0e7      	LDI  R30,LOW(7)
0006cb 167e      	CP   R7,R30
0006cc f008      	BRLO _0xC2
                 _0xC1:
0006cd c008      	RJMP _0xC0
                 _0xC2:
                 ;            {
                 ;                current_pattern++;
0006ce 9473      	INC  R7
                 ;                patt = read_pattern(current_pattern);
0006cf 927a      	ST   -Y,R7
0006d0 dbe4      	RCALL _read_pattern
0006d1 e3ab      	LDI  R26,LOW(_patt)
0006d2 e0b2      	LDI  R27,HIGH(_patt)
0006d3 940e 0d3c 	CALL __COPYMML
0006d5 be1f      	OUT  SREG,R1
                 ;            }
                 ;        }
                 _0xC0:
                 ;        else
0006d6 c155      	RJMP _0xC3
                 _0xB6:
                 ;        {
                 ;            if (!enc1)
0006d7 91e0 020c 	LDS  R30,_enc1
0006d9 30e0      	CPI  R30,0
0006da f011      	BREQ PC+3
0006db 940c 0789 	JMP _0xC4
                 ;            {
                 ;                switch (e_mode)
0006dd 91e0 021b 	LDS  R30,_e_mode
0006df e0f0      	LDI  R31,0
                 ;                {
                 ;                    case 0: if (e_preset > 0 && !e_save)
0006e0 9730      	SBIW R30,0
0006e1 f551      	BRNE _0xC8
0006e2 91a0 0218 	LDS  R26,_e_preset
0006e4 30a1      	CPI  R26,LOW(0x1)
0006e5 f010      	BRLO _0xCA
0006e6 fe25      	SBRS R2,5
0006e7 c001      	RJMP _0xCB
                 _0xCA:
0006e8 c022      	RJMP _0xC9
                 _0xCB:
                 ;                            {
                 ;                                e_preset--;
0006e9 91e0 0218 	LDS  R30,_e_preset
0006eb 50e1      	SUBI R30,LOW(1)
0006ec 93e0 0218 	STS  _e_preset,R30
                 ;                                e_patt = read_pattern(e_preset);
0006ee 93ea      	ST   -Y,R30
0006ef dbc5      	RCALL _read_pattern
0006f0 e1ac      	LDI  R26,LOW(_e_patt)
0006f1 e0b2      	LDI  R27,HIGH(_e_patt)
0006f2 940e 0d3c 	CALL __COPYMML
0006f4 be1f      	OUT  SREG,R1
                 ;
                 ;                                e_item = 0;
0006f5 e0e0      	LDI  R30,LOW(0)
0006f6 93e0 0219 	STS  _e_item,R30
                 ;                                e_out = (e_patt.out[e_item] & 0x07) + (e_patt.out[e_item] & 0x08);
                +
0006f8 e1ad     +LDI R26 , LOW ( _e_patt + ( 1 ) )
0006f9 e0b2     +LDI R27 , HIGH ( _e_patt + ( 1 ) )
                 	__POINTW2MN _e_patt,1
0006fa e0f0      	LDI  R31,0
0006fb 0fae      	ADD  R26,R30
0006fc 1fbf      	ADC  R27,R31
0006fd 91ec      	LD   R30,X
0006fe 2fae      	MOV  R26,R30
0006ff 70e7      	ANDI R30,LOW(0x7)
000700 2e0e      	MOV  R0,R30
000701 2fea      	MOV  R30,R26
000702 70e8      	ANDI R30,LOW(0x8)
000703 0de0      	ADD  R30,R0
000704 93e0 021a 	STS  _e_out,R30
                 ;                                if (e_out)  e_out++;
000706 30e0      	CPI  R30,0
000707 f019      	BREQ _0xCC
000708 5fef      	SUBI R30,-LOW(1)
000709 93e0 021a 	STS  _e_out,R30
                 ;                            }
                 _0xCC:
                 ;                            break;
                 _0xC9:
00070b c074      	RJMP _0xC7
                 ;                    case 1: if (e_item > 0)
                 _0xC8:
00070c 30e1      	CPI  R30,LOW(0x1)
00070d e0a0      	LDI  R26,HIGH(0x1)
00070e 07fa      	CPC  R31,R26
00070f f011      	BREQ PC+3
000710 940c 0765 	JMP _0xCD
000712 91a0 0219 	LDS  R26,_e_item
000714 30a1      	CPI  R26,LOW(0x1)
000715 f410      	BRSH PC+3
000716 940c 0764 	JMP _0xCE
                 ;                            {
                 ;                                if (e_out)
000718 91e0 021a 	LDS  R30,_e_out
00071a 30e0      	CPI  R30,0
00071b f139      	BREQ _0xCF
                 ;                                {
                 ;                                    e_out--;
00071c 50e1      	SUBI R30,LOW(1)
00071d 93e0 021a 	STS  _e_out,R30
                 ;                                    e_patt.out[e_item] = e_out & 0x07;
                +
00071f e1ad     +LDI R26 , LOW ( _e_patt + ( 1 ) )
000720 e0b2     +LDI R27 , HIGH ( _e_patt + ( 1 ) )
                 	__POINTW2MN _e_patt,1
000721 91e0 0219 	LDS  R30,_e_item
000723 e0f0      	LDI  R31,0
000724 0fae      	ADD  R26,R30
000725 1fbf      	ADC  R27,R31
000726 91e0 021a 	LDS  R30,_e_out
000728 70e7      	ANDI R30,LOW(0x7)
000729 93ec      	ST   X,R30
                 ;                                    if (e_out > 7)
00072a 91a0 021a 	LDS  R26,_e_out
00072c 30a8      	CPI  R26,LOW(0x8)
00072d f050      	BRLO _0xD0
                 ;                                        e_patt.out[e_item] += 0x08;
                +
00072e e1ad     +LDI R26 , LOW ( _e_patt + ( 1 ) )
00072f e0b2     +LDI R27 , HIGH ( _e_patt + ( 1 ) )
                 	__POINTW2MN _e_patt,1
000730 91e0 0219 	LDS  R30,_e_item
000732 e0f0      	LDI  R31,0
000733 0fae      	ADD  R26,R30
000734 1fbf      	ADC  R27,R31
000735 91ec      	LD   R30,X
000736 5fe8      	SUBI R30,-LOW(8)
000737 c009      	RJMP _0x160
                 ;                                    else
                 _0xD0:
                 ;                                        e_patt.out[e_item] += 0x10;
                +
000738 e1ad     +LDI R26 , LOW ( _e_patt + ( 1 ) )
000739 e0b2     +LDI R27 , HIGH ( _e_patt + ( 1 ) )
                 	__POINTW2MN _e_patt,1
00073a 91e0 0219 	LDS  R30,_e_item
00073c e0f0      	LDI  R31,0
00073d 0fae      	ADD  R26,R30
00073e 1fbf      	ADC  R27,R31
00073f 91ec      	LD   R30,X
000740 5fe0      	SUBI R30,-LOW(16)
                 _0x160:
000741 93ec      	ST   X,R30
                 ;                                }
                 ;                                else
000742 c009      	RJMP _0xD2
                 _0xCF:
                 ;                                    e_patt.out[e_item] = 0;
                +
000743 e1ad     +LDI R26 , LOW ( _e_patt + ( 1 ) )
000744 e0b2     +LDI R27 , HIGH ( _e_patt + ( 1 ) )
                 	__POINTW2MN _e_patt,1
000745 91e0 0219 	LDS  R30,_e_item
000747 e0f0      	LDI  R31,0
000748 0fae      	ADD  R26,R30
000749 1fbf      	ADC  R27,R31
00074a e0e0      	LDI  R30,LOW(0)
00074b 93ec      	ST   X,R30
                 ;                                e_item--;
                 _0xD2:
00074c 91e0 0219 	LDS  R30,_e_item
00074e 50e1      	SUBI R30,LOW(1)
00074f 93e0 0219 	STS  _e_item,R30
                 ;                                e_out = (e_patt.out[e_item] & 0x07) + (e_patt.out[e_item] & 0x08);
                +
000751 e1ad     +LDI R26 , LOW ( _e_patt + ( 1 ) )
000752 e0b2     +LDI R27 , HIGH ( _e_patt + ( 1 ) )
                 	__POINTW2MN _e_patt,1
000753 e0f0      	LDI  R31,0
000754 0fae      	ADD  R26,R30
000755 1fbf      	ADC  R27,R31
000756 91ec      	LD   R30,X
000757 2fae      	MOV  R26,R30
000758 70e7      	ANDI R30,LOW(0x7)
000759 2e0e      	MOV  R0,R30
00075a 2fea      	MOV  R30,R26
00075b 70e8      	ANDI R30,LOW(0x8)
00075c 0de0      	ADD  R30,R0
00075d 93e0 021a 	STS  _e_out,R30
                 ;                                if (e_out)  e_out++;
00075f 30e0      	CPI  R30,0
000760 f019      	BREQ _0xD3
000761 5fef      	SUBI R30,-LOW(1)
000762 93e0 021a 	STS  _e_out,R30
                 ;                            }
                 _0xD3:
                 ;                            break;
                 _0xCE:
000764 c01b      	RJMP _0xC7
                 ;                    case 2: if (e_out > 0 && e_item + 1 == e_patt.length)
                 _0xCD:
000765 30e2      	CPI  R30,LOW(0x2)
000766 e0a0      	LDI  R26,HIGH(0x2)
000767 07fa      	CPC  R31,R26
000768 f4b9      	BRNE _0xC7
000769 91a0 021a 	LDS  R26,_e_out
00076b 30a1      	CPI  R26,LOW(0x1)
00076c f058      	BRLO _0xD6
00076d 91e0 0219 	LDS  R30,_e_item
00076f e0f0      	LDI  R31,0
000770 9631      	ADIW R30,1
000771 01df      	MOVW R26,R30
000772 91e0 021c 	LDS  R30,_e_patt
000774 e0f0      	LDI  R31,0
000775 17ea      	CP   R30,R26
000776 07fb      	CPC  R31,R27
000777 f009      	BREQ _0xD7
                 _0xD6:
000778 c007      	RJMP _0xD5
                 _0xD7:
                 ;                            {
                 ;                                e_out--;
000779 91e0 021a 	LDS  R30,_e_out
00077b 50e1      	SUBI R30,LOW(1)
00077c 93e0 021a 	STS  _e_out,R30
                 ;                                e_save = 1;
00077e 9468      	SET
00077f f825      	BLD  R2,5
                 ;                            }
                 ;                            break;
                 _0xD5:
                 ;                }
                 _0xC7:
                 ;                if (!e_out)
000780 91e0 021a 	LDS  R30,_e_out
000782 30e0      	CPI  R30,0
000783 f421      	BRNE _0xD8
                 ;                {
                 ;                    e_patt.length = e_item;
000784 91e0 0219 	LDS  R30,_e_item
000786 93e0 021c 	STS  _e_patt,R30
                 ;                }
                 ;            }
                 _0xD8:
                 ;            else
000788 c0a3      	RJMP _0xD9
                 _0xC4:
                 ;            {
                 ;                switch (e_mode)
000789 91e0 021b 	LDS  R30,_e_mode
00078b e0f0      	LDI  R31,0
                 ;                {
                 ;                    case 0: if (e_preset < MAX_PATTERNS-1 && !e_save)
00078c 9730      	SBIW R30,0
00078d f551      	BRNE _0xDD
00078e 91a0 0218 	LDS  R26,_e_preset
000790 30a7      	CPI  R26,LOW(0x7)
000791 f410      	BRSH _0xDF
000792 fe25      	SBRS R2,5
000793 c001      	RJMP _0xE0
                 _0xDF:
000794 c022      	RJMP _0xDE
                 _0xE0:
                 ;                            {
                 ;                                e_preset++;
000795 91e0 0218 	LDS  R30,_e_preset
000797 5fef      	SUBI R30,-LOW(1)
000798 93e0 0218 	STS  _e_preset,R30
                 ;                                e_patt = read_pattern(e_preset);
00079a 93ea      	ST   -Y,R30
00079b db19      	RCALL _read_pattern
00079c e1ac      	LDI  R26,LOW(_e_patt)
00079d e0b2      	LDI  R27,HIGH(_e_patt)
00079e 940e 0d3c 	CALL __COPYMML
0007a0 be1f      	OUT  SREG,R1
                 ;
                 ;                                e_item = 0;
0007a1 e0e0      	LDI  R30,LOW(0)
0007a2 93e0 0219 	STS  _e_item,R30
                 ;                                e_out = (e_patt.out[e_item] & 0x07) + (e_patt.out[e_item] & 0x08);
                +
0007a4 e1ad     +LDI R26 , LOW ( _e_patt + ( 1 ) )
0007a5 e0b2     +LDI R27 , HIGH ( _e_patt + ( 1 ) )
                 	__POINTW2MN _e_patt,1
0007a6 e0f0      	LDI  R31,0
0007a7 0fae      	ADD  R26,R30
0007a8 1fbf      	ADC  R27,R31
0007a9 91ec      	LD   R30,X
0007aa 2fae      	MOV  R26,R30
0007ab 70e7      	ANDI R30,LOW(0x7)
0007ac 2e0e      	MOV  R0,R30
0007ad 2fea      	MOV  R30,R26
0007ae 70e8      	ANDI R30,LOW(0x8)
0007af 0de0      	ADD  R30,R0
0007b0 93e0 021a 	STS  _e_out,R30
                 ;                                if (e_out)  e_out++;
0007b2 30e0      	CPI  R30,0
0007b3 f019      	BREQ _0xE1
0007b4 5fef      	SUBI R30,-LOW(1)
0007b5 93e0 021a 	STS  _e_out,R30
                 ;                            }
                 _0xE1:
                 ;                            break;
                 _0xDE:
0007b7 c074      	RJMP _0xDC
                 ;                    case 1: if (e_item < MAX_ITEMS-1 && e_out > 0)
                 _0xDD:
0007b8 30e1      	CPI  R30,LOW(0x1)
0007b9 e0a0      	LDI  R26,HIGH(0x1)
0007ba 07fa      	CPC  R31,R26
0007bb f011      	BREQ PC+3
0007bc 940c 081d 	JMP _0xE2
0007be 91a0 0219 	LDS  R26,_e_item
0007c0 31ad      	CPI  R26,LOW(0x1D)
0007c1 f420      	BRSH _0xE4
0007c2 91a0 021a 	LDS  R26,_e_out
0007c4 30a1      	CPI  R26,LOW(0x1)
0007c5 f408      	BRSH _0xE5
                 _0xE4:
0007c6 c055      	RJMP _0xE3
                 _0xE5:
                 ;                            {
                 ;                                if (e_out)
0007c7 91e0 021a 	LDS  R30,_e_out
0007c9 30e0      	CPI  R30,0
0007ca f139      	BREQ _0xE6
                 ;                                {
                 ;                                    e_out--;
0007cb 50e1      	SUBI R30,LOW(1)
0007cc 93e0 021a 	STS  _e_out,R30
                 ;                                    e_patt.out[e_item] = e_out & 0x07;
                +
0007ce e1ad     +LDI R26 , LOW ( _e_patt + ( 1 ) )
0007cf e0b2     +LDI R27 , HIGH ( _e_patt + ( 1 ) )
                 	__POINTW2MN _e_patt,1
0007d0 91e0 0219 	LDS  R30,_e_item
0007d2 e0f0      	LDI  R31,0
0007d3 0fae      	ADD  R26,R30
0007d4 1fbf      	ADC  R27,R31
0007d5 91e0 021a 	LDS  R30,_e_out
0007d7 70e7      	ANDI R30,LOW(0x7)
0007d8 93ec      	ST   X,R30
                 ;                                    if (e_out > 7)
0007d9 91a0 021a 	LDS  R26,_e_out
0007db 30a8      	CPI  R26,LOW(0x8)
0007dc f050      	BRLO _0xE7
                 ;                                        e_patt.out[e_item] += 0x08;
                +
0007dd e1ad     +LDI R26 , LOW ( _e_patt + ( 1 ) )
0007de e0b2     +LDI R27 , HIGH ( _e_patt + ( 1 ) )
                 	__POINTW2MN _e_patt,1
0007df 91e0 0219 	LDS  R30,_e_item
0007e1 e0f0      	LDI  R31,0
0007e2 0fae      	ADD  R26,R30
0007e3 1fbf      	ADC  R27,R31
0007e4 91ec      	LD   R30,X
0007e5 5fe8      	SUBI R30,-LOW(8)
0007e6 c009      	RJMP _0x161
                 ;                                    else
                 _0xE7:
                 ;                                        e_patt.out[e_item] += 0x10;
                +
0007e7 e1ad     +LDI R26 , LOW ( _e_patt + ( 1 ) )
0007e8 e0b2     +LDI R27 , HIGH ( _e_patt + ( 1 ) )
                 	__POINTW2MN _e_patt,1
0007e9 91e0 0219 	LDS  R30,_e_item
0007eb e0f0      	LDI  R31,0
0007ec 0fae      	ADD  R26,R30
0007ed 1fbf      	ADC  R27,R31
0007ee 91ec      	LD   R30,X
0007ef 5fe0      	SUBI R30,-LOW(16)
                 _0x161:
0007f0 93ec      	ST   X,R30
                 ;                                }
                 ;                                else
0007f1 c009      	RJMP _0xE9
                 _0xE6:
                 ;                                    e_patt.out[e_item] = 0;
                +
0007f2 e1ad     +LDI R26 , LOW ( _e_patt + ( 1 ) )
0007f3 e0b2     +LDI R27 , HIGH ( _e_patt + ( 1 ) )
                 	__POINTW2MN _e_patt,1
0007f4 91e0 0219 	LDS  R30,_e_item
0007f6 e0f0      	LDI  R31,0
0007f7 0fae      	ADD  R26,R30
0007f8 1fbf      	ADC  R27,R31
0007f9 e0e0      	LDI  R30,LOW(0)
0007fa 93ec      	ST   X,R30
                 ;                                e_item++;
                 _0xE9:
0007fb 91e0 0219 	LDS  R30,_e_item
0007fd 5fef      	SUBI R30,-LOW(1)
0007fe 93e0 0219 	STS  _e_item,R30
                 ;                                e_out = (e_patt.out[e_item] & 0x07) + (e_patt.out[e_item] & 0x08);
                +
000800 e1ad     +LDI R26 , LOW ( _e_patt + ( 1 ) )
000801 e0b2     +LDI R27 , HIGH ( _e_patt + ( 1 ) )
                 	__POINTW2MN _e_patt,1
000802 e0f0      	LDI  R31,0
000803 0fae      	ADD  R26,R30
000804 1fbf      	ADC  R27,R31
000805 91ec      	LD   R30,X
000806 2fae      	MOV  R26,R30
000807 70e7      	ANDI R30,LOW(0x7)
000808 2e0e      	MOV  R0,R30
000809 2fea      	MOV  R30,R26
00080a 70e8      	ANDI R30,LOW(0x8)
00080b 0de0      	ADD  R30,R0
00080c 93e0 021a 	STS  _e_out,R30
                 ;                                if (e_out) e_out++;
00080e 30e0      	CPI  R30,0
00080f f019      	BREQ _0xEA
000810 5fef      	SUBI R30,-LOW(1)
000811 93e0 021a 	STS  _e_out,R30
                 ;                                if (e_item > e_patt.length)
                 _0xEA:
000813 91e0 021c 	LDS  R30,_e_patt
000815 91a0 0219 	LDS  R26,_e_item
000817 17ea      	CP   R30,R26
000818 f418      	BRSH _0xEB
                 ;                                    e_patt.length++;
000819 5fef      	SUBI R30,-LOW(1)
00081a 93e0 021c 	STS  _e_patt,R30
                 ;                            }
                 _0xEB:
                 ;                            break;
                 _0xE3:
00081c c00f      	RJMP _0xDC
                 ;                    case 2: if (e_out < MAX_OUT)
                 _0xE2:
00081d 30e2      	CPI  R30,LOW(0x2)
00081e e0a0      	LDI  R26,HIGH(0x2)
00081f 07fa      	CPC  R31,R26
000820 f459      	BRNE _0xDC
000821 91a0 021a 	LDS  R26,_e_out
000823 31a0      	CPI  R26,LOW(0x10)
000824 f438      	BRSH _0xED
                 ;                            {
                 ;                                e_out++;
000825 91e0 021a 	LDS  R30,_e_out
000827 5fef      	SUBI R30,-LOW(1)
000828 93e0 021a 	STS  _e_out,R30
                 ;                                e_save = 1;
00082a 9468      	SET
00082b f825      	BLD  R2,5
                 ;                            }
                 ;                            break;
                 _0xED:
                 ;                }
                 _0xDC:
                 ;            }
                 _0xD9:
                 ;        }
                 _0xC3:
                 ;        SetBit(PORTA, 0b01000000);
00082c 9ade      	SBI  0x1B,6
                 ;//        return;
                 ;    }
                 ;//---------------------Rotate right--------------------------
                 ;    if (!TestBit(PINA, 0b10000000))
                 _0xB5:
00082d 99cf      	SBIC 0x19,7
00082e c053      	RJMP _0xEE
                 ;    {
                 ;        if (!edit_mode)
00082f fc20      	SBRC R2,0
000830 c035      	RJMP _0xEF
                 ;        {
                 ;            if (enc2 && scan_speed < max_speed)
000831 91e0 020d 	LDS  R30,_enc2
000833 30e0      	CPI  R30,0
000834 f041      	BREQ _0xF1
000835 91a0 0212 	LDS  R26,_scan_speed
000837 91b0 0213 	LDS  R27,_scan_speed+1
000839 34a0      	CPI  R26,LOW(0x9C40)
00083a e9ec      	LDI  R30,HIGH(0x9C40)
00083b 07be      	CPC  R27,R30
00083c f008      	BRLO _0xF2
                 _0xF1:
00083d c00a      	RJMP _0xF0
                 _0xF2:
                 ;                scan_speed += dividor_speed;
00083e 91e0 0212 	LDS  R30,_scan_speed
000840 91f0 0213 	LDS  R31,_scan_speed+1
000842 50ec      	SUBI R30,LOW(-500)
000843 4ffe      	SBCI R31,HIGH(-500)
000844 93e0 0212 	STS  _scan_speed,R30
000846 93f0 0213 	STS  _scan_speed+1,R31
                 ;            if (!enc2 && scan_speed > min_speed)
                 _0xF0:
000848 91e0 020d 	LDS  R30,_enc2
00084a 30e0      	CPI  R30,0
00084b f441      	BRNE _0xF4
00084c 91a0 0212 	LDS  R26,_scan_speed
00084e 91b0 0213 	LDS  R27,_scan_speed+1
000850 3fa5      	CPI  R26,LOW(0x1F5)
000851 e0e1      	LDI  R30,HIGH(0x1F5)
000852 07be      	CPC  R27,R30
000853 f408      	BRSH _0xF5
                 _0xF4:
000854 c00a      	RJMP _0xF3
                 _0xF5:
                 ;                scan_speed -= dividor_speed;
000855 91e0 0212 	LDS  R30,_scan_speed
000857 91f0 0213 	LDS  R31,_scan_speed+1
000859 5fe4      	SUBI R30,LOW(500)
00085a 40f1      	SBCI R31,HIGH(500)
00085b 93e0 0212 	STS  _scan_speed,R30
00085d 93f0 0213 	STS  _scan_speed+1,R31
                 ;            OCR1A = scan_speed;
                 _0xF3:
00085f 91e0 0212 	LDS  R30,_scan_speed
000861 91f0 0213 	LDS  R31,_scan_speed+1
000863 bdfb      	OUT  0x2A+1,R31
000864 bdea      	OUT  0x2A,R30
                 ;        }
                 ;        else
000865 c01b      	RJMP _0xF6
                 _0xEF:
                 ;        {
                 ;            if (!enc2)
000866 91e0 020d 	LDS  R30,_enc2
000868 30e0      	CPI  R30,0
000869 f461      	BRNE _0xF7
                 ;            {
                 ;                if (e_mode > 0) e_mode--;
00086a 91a0 021b 	LDS  R26,_e_mode
00086c 30a1      	CPI  R26,LOW(0x1)
00086d f020      	BRLO _0xF8
00086e 91e0 021b 	LDS  R30,_e_mode
000870 50e1      	SUBI R30,LOW(1)
000871 c001      	RJMP _0x162
                 ;                else e_mode = 2;
                 _0xF8:
000872 e0e2      	LDI  R30,LOW(2)
                 _0x162:
000873 93e0 021b 	STS  _e_mode,R30
                 ;            }
                 ;            else
000875 c00b      	RJMP _0xFA
                 _0xF7:
                 ;            {
                 ;                if (e_mode < 2) e_mode++;
000876 91a0 021b 	LDS  R26,_e_mode
000878 30a2      	CPI  R26,LOW(0x2)
000879 f420      	BRSH _0xFB
00087a 91e0 021b 	LDS  R30,_e_mode
00087c 5fef      	SUBI R30,-LOW(1)
00087d c001      	RJMP _0x163
                 ;                else e_mode = 0;
                 _0xFB:
00087e e0e0      	LDI  R30,LOW(0)
                 _0x163:
00087f 93e0 021b 	STS  _e_mode,R30
                 ;            }
                 _0xFA:
                 ;        }
                 _0xF6:
                 ;        SetBit(PORTA, 0b10000000);
000881 9adf      	SBI  0x1B,7
                 ;//        return;
                 ;    }
                 ;//------------------------Stop start-------------------------
                 ;//    if (!TestBit(PINA, 0b00010000))
                 ;//    {
                 ;//        if (!edit_mode)
                 ;//        {
                 ;//            if (ch_on)
                 ;//            {
                 ;//                ch_on = 0;
                 ;//                ch_speed = 1;
                 ;//                tmp_speed = scan_speed;
                 ;//            }
                 ;//            else
                 ;//            {
                 ;//                ch_on = 1;
                 ;//                ch_speed = 1;
                 ;//                TCCR1B=0x09;
                 ;//            }
                 ;//        }
                 ;////        return;
                 ;//    }
                 ;
                 ;//---------------------User presets--------------------------
                 ;    if (!TestBit(PINB, 0b00000001) && TestBit(PINA, 0b00010000))
                 _0xEE:
000882 99b0      	SBIC 0x16,0
000883 c002      	RJMP _0xFE
000884 99cc      	SBIC 0x19,4
000885 c001      	RJMP _0xFF
                 _0xFE:
000886 c010      	RJMP _0xFD
                 _0xFF:
                 ;    {
                 ;        if (!edit_mode)
000887 fc20      	SBRC R2,0
000888 c00e      	RJMP _0x100
                 ;        {
                 ;            if (scan_mode == 4)
000889 91a0 020f 	LDS  R26,_scan_mode
00088b 30a4      	CPI  R26,LOW(0x4)
00088c f419      	BRNE _0x101
                 ;                scan_mode = last_mode;
00088d 91e0 0210 	LDS  R30,_last_mode
00088f c005      	RJMP _0x164
                 ;            else
                 _0x101:
                 ;            {
                 ;                last_mode = scan_mode;
000890 91e0 020f 	LDS  R30,_scan_mode
000892 93e0 0210 	STS  _last_mode,R30
                 ;                scan_mode = 4;
000894 e0e4      	LDI  R30,LOW(4)
                 _0x164:
000895 93e0 020f 	STS  _scan_mode,R30
                 ;            }
                 ;        }
                 ;//        return;
                 ;    }
                 _0x100:
                 ;//--------------------Edit mode------------------------------
                 ;    if (!TestBit(PINB, 0b00000001) && !TestBit(PINA, 0b00010000))
                 _0xFD:
000897 99b0      	SBIC 0x16,0
000898 c002      	RJMP _0x104
000899 9bcc      	SBIS 0x19,4
00089a c001      	RJMP _0x105
                 _0x104:
00089b c007      	RJMP _0x103
                 _0x105:
                 ;    {
                 ;        if (edit_mode)
00089c fe20      	SBRS R2,0
00089d c003      	RJMP _0x106
                 ;        {
                 ;            e_preview = 0;
00089e 94e8      	CLT
00089f f826      	BLD  R2,6
                 ;            edit_mode = 0;
0008a0 c001      	RJMP _0x165
                 ;        }
                 ;        else
                 _0x106:
                 ;            edit_mode = 1;
0008a1 9468      	SET
                 _0x165:
0008a2 f820      	BLD  R2,0
                 ;//        return;
                 ;    }
                 ;//-----------------------Preview-----------------------------
                 ;    if (!TestBit(PINA, 0b00100000))
                 _0x103:
0008a3 99cd      	SBIC 0x19,5
0008a4 c01d      	RJMP _0x108
                 ;    {
                 ;        if (!edit_mode)
0008a5 fc20      	SBRC R2,0
0008a6 c015      	RJMP _0x109
                 ;        {
                 ;            if (ch_on)
0008a7 fe24      	SBRS R2,4
0008a8 c00d      	RJMP _0x10A
                 ;            {
                 ;                ch_on = 0;
0008a9 94e8      	CLT
0008aa f824      	BLD  R2,4
                 ;                ch_speed = 1;
0008ab 9468      	SET
0008ac f823      	BLD  R2,3
                 ;                tmp_speed = scan_speed;
0008ad 91e0 0212 	LDS  R30,_scan_speed
0008af 91f0 0213 	LDS  R31,_scan_speed+1
0008b1 93e0 0214 	STS  _tmp_speed,R30
0008b3 93f0 0215 	STS  _tmp_speed+1,R31
                 ;            }
                 ;            else
0008b5 c005      	RJMP _0x10B
                 _0x10A:
                 ;            {
                 ;                ch_on = 1;
0008b6 9468      	SET
0008b7 f824      	BLD  R2,4
                 ;                ch_speed = 1;
0008b8 f823      	BLD  R2,3
                 ;                TCCR1B=0x09;
0008b9 e0e9      	LDI  R30,LOW(9)
0008ba bdee      	OUT  0x2E,R30
                 ;            }
                 _0x10B:
                 ;        }
                 ;        else
0008bb c006      	RJMP _0x10C
                 _0x109:
                 ;        {
                 ;            if (e_preview)
0008bc fe26      	SBRS R2,6
0008bd c002      	RJMP _0x10D
                 ;                e_preview = 0;
0008be 94e8      	CLT
0008bf c001      	RJMP _0x166
                 ;            else
                 _0x10D:
                 ;                e_preview = 1;
0008c0 9468      	SET
                 _0x166:
0008c1 f826      	BLD  R2,6
                 ;        }
                 _0x10C:
                 ;//        return;
                 ;    }
                 ;//-------------------------Save------------------------------
                 ;    if (!TestBit(PINB, 0b00000010) && e_save && edit_mode)
                 _0x108:
0008c2 99b1      	SBIC 0x16,1
0008c3 c004      	RJMP _0x110
0008c4 fe25      	SBRS R2,5
0008c5 c002      	RJMP _0x110
0008c6 fc20      	SBRC R2,0
0008c7 c001      	RJMP _0x111
                 _0x110:
0008c8 c040      	RJMP _0x10F
                 _0x111:
                 ;    {
                 ;        //ñîõðàíÿåì òåêóùèé OUT, ò.ê. îí ñîêðàíÿåòñÿ òîëüêî ïðè èçìåíåíèè ITEM
                 ;        if (e_out)
0008c9 91e0 021a 	LDS  R30,_e_out
0008cb 30e0      	CPI  R30,0
0008cc f139      	BREQ _0x112
                 ;        {
                 ;            e_out--;
0008cd 50e1      	SUBI R30,LOW(1)
0008ce 93e0 021a 	STS  _e_out,R30
                 ;            e_patt.out[e_item] = e_out & 0x07;
                +
0008d0 e1ad     +LDI R26 , LOW ( _e_patt + ( 1 ) )
0008d1 e0b2     +LDI R27 , HIGH ( _e_patt + ( 1 ) )
                 	__POINTW2MN _e_patt,1
0008d2 91e0 0219 	LDS  R30,_e_item
0008d4 e0f0      	LDI  R31,0
0008d5 0fae      	ADD  R26,R30
0008d6 1fbf      	ADC  R27,R31
0008d7 91e0 021a 	LDS  R30,_e_out
0008d9 70e7      	ANDI R30,LOW(0x7)
0008da 93ec      	ST   X,R30
                 ;            if (e_out > 7)
0008db 91a0 021a 	LDS  R26,_e_out
0008dd 30a8      	CPI  R26,LOW(0x8)
0008de f050      	BRLO _0x113
                 ;                e_patt.out[e_item] += 0x08;
                +
0008df e1ad     +LDI R26 , LOW ( _e_patt + ( 1 ) )
0008e0 e0b2     +LDI R27 , HIGH ( _e_patt + ( 1 ) )
                 	__POINTW2MN _e_patt,1
0008e1 91e0 0219 	LDS  R30,_e_item
0008e3 e0f0      	LDI  R31,0
0008e4 0fae      	ADD  R26,R30
0008e5 1fbf      	ADC  R27,R31
0008e6 91ec      	LD   R30,X
0008e7 5fe8      	SUBI R30,-LOW(8)
0008e8 c009      	RJMP _0x167
                 ;            else
                 _0x113:
                 ;            e_patt.out[e_item] += 0x10;
                +
0008e9 e1ad     +LDI R26 , LOW ( _e_patt + ( 1 ) )
0008ea e0b2     +LDI R27 , HIGH ( _e_patt + ( 1 ) )
                 	__POINTW2MN _e_patt,1
0008eb 91e0 0219 	LDS  R30,_e_item
0008ed e0f0      	LDI  R31,0
0008ee 0fae      	ADD  R26,R30
0008ef 1fbf      	ADC  R27,R31
0008f0 91ec      	LD   R30,X
0008f1 5fe0      	SUBI R30,-LOW(16)
                 _0x167:
0008f2 93ec      	ST   X,R30
                 ;        }
                 ;        else
0008f3 c009      	RJMP _0x115
                 _0x112:
                 ;            e_patt.out[e_item] = 0;
                +
0008f4 e1ad     +LDI R26 , LOW ( _e_patt + ( 1 ) )
0008f5 e0b2     +LDI R27 , HIGH ( _e_patt + ( 1 ) )
                 	__POINTW2MN _e_patt,1
0008f6 91e0 0219 	LDS  R30,_e_item
0008f8 e0f0      	LDI  R31,0
0008f9 0fae      	ADD  R26,R30
0008fa 1fbf      	ADC  R27,R31
0008fb e0e0      	LDI  R30,LOW(0)
0008fc 93ec      	ST   X,R30
                 ;        //çàïèñü â EEPROM
                 ;        write_pattern(e_patt, e_preset);
                 _0x115:
0008fd e1ec      	LDI  R30,LOW(_e_patt)
0008fe e0f2      	LDI  R31,HIGH(_e_patt)
0008ff e1af      	LDI  R26,31
000900 940e 0d34 	CALL __PUTPARL
000902 91e0 0218 	LDS  R30,_e_preset
000904 93ea      	ST   -Y,R30
000905 940e 023a 	CALL _write_pattern
                 ;        e_save = 0;
000907 94e8      	CLT
000908 f825      	BLD  R2,5
                 ;//        return;
                 ;    }
                 ;
                 ;    lcd_out();
                 _0x10F:
000909 dbfb      	RCALL _lcd_out
                 ;}
00090a 91e9      	LD   R30,Y+
00090b bfef      	OUT  SREG,R30
00090c 91f9      	LD   R31,Y+
00090d 91e9      	LD   R30,Y+
00090e 91b9      	LD   R27,Y+
00090f 91a9      	LD   R26,Y+
000910 9199      	LD   R25,Y+
000911 9189      	LD   R24,Y+
000912 9179      	LD   R23,Y+
000913 9169      	LD   R22,Y+
000914 90f9      	LD   R15,Y+
000915 9019      	LD   R1,Y+
000916 9009      	LD   R0,Y+
000917 9518      	RETI
                 ;
                 ;// Timer 0 overflow interrupt service routine
                 ;interrupt [TIM0_OVF] void timer0_ovf_isr(void)
                 ; 0000 00DF {
                 _timer0_ovf_isr:
000918 920a      	ST   -Y,R0
000919 921a      	ST   -Y,R1
00091a 92fa      	ST   -Y,R15
00091b 936a      	ST   -Y,R22
00091c 937a      	ST   -Y,R23
00091d 938a      	ST   -Y,R24
00091e 939a      	ST   -Y,R25
00091f 93aa      	ST   -Y,R26
000920 93ba      	ST   -Y,R27
000921 93ea      	ST   -Y,R30
000922 93fa      	ST   -Y,R31
000923 b7ef      	IN   R30,SREG
000924 93ea      	ST   -Y,R30
                 ; 0000 00E0 // Place your code here
                 ; 0000 00E1     encoder_main(PINA, 0b00000001, 0b00000010, PINA, 0b00000100, 0b00001000);
000925 b3e9      	IN   R30,0x19
000926 93ea      	ST   -Y,R30
000927 e0e1      	LDI  R30,LOW(1)
000928 93ea      	ST   -Y,R30
000929 e0e2      	LDI  R30,LOW(2)
00092a 93ea      	ST   -Y,R30
00092b b3e9      	IN   R30,0x19
00092c 93ea      	ST   -Y,R30
00092d e0e4      	LDI  R30,LOW(4)
00092e 93ea      	ST   -Y,R30
00092f e0e8      	LDI  R30,LOW(8)
000930 93ea      	ST   -Y,R30
000931 dab3      	RCALL _encoder_main
                 ; 0000 00E2 }
000932 91e9      	LD   R30,Y+
000933 bfef      	OUT  SREG,R30
000934 91f9      	LD   R31,Y+
000935 91e9      	LD   R30,Y+
000936 91b9      	LD   R27,Y+
000937 91a9      	LD   R26,Y+
000938 9199      	LD   R25,Y+
000939 9189      	LD   R24,Y+
00093a 9179      	LD   R23,Y+
00093b 9169      	LD   R22,Y+
00093c 90f9      	LD   R15,Y+
00093d 9019      	LD   R1,Y+
00093e 9009      	LD   R0,Y+
00093f 9518      	RETI
                 ;
                 ;// Timer1 output compare A interrupt service routine
                 ;interrupt [TIM1_COMPA] void timer1_compa_isr(void)
                 ; 0000 00E6 {
                 _timer1_compa_isr:
000940 920a      	ST   -Y,R0
000941 921a      	ST   -Y,R1
000942 92fa      	ST   -Y,R15
000943 936a      	ST   -Y,R22
000944 937a      	ST   -Y,R23
000945 938a      	ST   -Y,R24
000946 939a      	ST   -Y,R25
000947 93aa      	ST   -Y,R26
000948 93ba      	ST   -Y,R27
000949 93ea      	ST   -Y,R30
00094a 93fa      	ST   -Y,R31
00094b b7ef      	IN   R30,SREG
00094c 93ea      	ST   -Y,R30
                 ; 0000 00E7 // Place your code here
                 ; 0000 00E8     if (multiplexor)
00094d fe22      	SBRS R2,2
00094e c004      	RJMP _0x116
                 ; 0000 00E9         pwm_cnt--;
00094f 91e0 020e 	LDS  R30,_pwm_cnt
000951 50e1      	SUBI R30,LOW(1)
000952 c003      	RJMP _0x168
                 ; 0000 00EA     else
                 _0x116:
                 ; 0000 00EB         pwm_cnt++;
000953 91e0 020e 	LDS  R30,_pwm_cnt
000955 5fef      	SUBI R30,-LOW(1)
                 _0x168:
000956 93e0 020e 	STS  _pwm_cnt,R30
                 ; 0000 00EC 
                 ; 0000 00ED     OCR2 = pwm_cnt;
000958 bde3      	OUT  0x23,R30
                 ; 0000 00EE 
                 ; 0000 00EF     if (pwm_cnt > 0 && pwm_cnt < 0xFF)
000959 91a0 020e 	LDS  R26,_pwm_cnt
00095b 30a1      	CPI  R26,LOW(0x1)
00095c f010      	BRLO _0x119
00095d 3faf      	CPI  R26,LOW(0xFF)
00095e f008      	BRLO _0x11A
                 _0x119:
00095f c00e      	RJMP _0x118
                 _0x11A:
                 ; 0000 00F0         return;
000960 91e9      	LD   R30,Y+
000961 bfef      	OUT  SREG,R30
000962 91f9      	LD   R31,Y+
000963 91e9      	LD   R30,Y+
000964 91b9      	LD   R27,Y+
000965 91a9      	LD   R26,Y+
000966 9199      	LD   R25,Y+
000967 9189      	LD   R24,Y+
000968 9179      	LD   R23,Y+
000969 9169      	LD   R22,Y+
00096a 90f9      	LD   R15,Y+
00096b 9019      	LD   R1,Y+
00096c 9009      	LD   R0,Y+
00096d 9518      	RETI
                 ; 0000 00F1 
                 ; 0000 00F2     if (!edit_mode)
                 _0x118:
00096e fc20      	SBRC R2,0
00096f c0cd      	RJMP _0x11B
                 ; 0000 00F3     {
                 ; 0000 00F4     if (ch_speed)
000970 fe23      	SBRS R2,3
000971 c04e      	RJMP _0x11C
                 ; 0000 00F5     {
                 ; 0000 00F6         if (!ch_on)
000972 fc24      	SBRC R2,4
000973 c02a      	RJMP _0x11D
                 ; 0000 00F7             if (scan_speed <= max_speed)    scan_speed += dividor_speed;
000974 91a0 0212 	LDS  R26,_scan_speed
000976 91b0 0213 	LDS  R27,_scan_speed+1
000978 34a1      	CPI  R26,LOW(0x9C41)
000979 e9ec      	LDI  R30,HIGH(0x9C41)
00097a 07be      	CPC  R27,R30
00097b f458      	BRSH _0x11E
00097c 91e0 0212 	LDS  R30,_scan_speed
00097e 91f0 0213 	LDS  R31,_scan_speed+1
000980 50ec      	SUBI R30,LOW(-500)
000981 4ffe      	SBCI R31,HIGH(-500)
000982 93e0 0212 	STS  _scan_speed,R30
000984 93f0 0213 	STS  _scan_speed+1,R31
                 ; 0000 00F8             else
000986 c017      	RJMP _0x11F
                 _0x11E:
                 ; 0000 00F9             {
                 ; 0000 00FA                 out = 0xFF;
000987 efef      	LDI  R30,LOW(255)
000988 93e0 0216 	STS  _out,R30
                 ; 0000 00FB                 shift_out(out);
00098a 93ea      	ST   -Y,R30
00098b db53      	RCALL _shift_out
                 ; 0000 00FC                 TCCR1B=0x00;
00098c e0e0      	LDI  R30,LOW(0)
00098d bdee      	OUT  0x2E,R30
                 ; 0000 00FD                 ch_speed = 0;
00098e 94e8      	CLT
00098f f823      	BLD  R2,3
                 ; 0000 00FE                 return;
000990 91e9      	LD   R30,Y+
000991 bfef      	OUT  SREG,R30
000992 91f9      	LD   R31,Y+
000993 91e9      	LD   R30,Y+
000994 91b9      	LD   R27,Y+
000995 91a9      	LD   R26,Y+
000996 9199      	LD   R25,Y+
000997 9189      	LD   R24,Y+
000998 9179      	LD   R23,Y+
000999 9169      	LD   R22,Y+
00099a 90f9      	LD   R15,Y+
00099b 9019      	LD   R1,Y+
00099c 9009      	LD   R0,Y+
00099d 9518      	RETI
                 ; 0000 00FF             }
                 _0x11F:
                 ; 0000 0100         if (ch_on)
                 _0x11D:
00099e fe24      	SBRS R2,4
00099f c020      	RJMP _0x120
                 ; 0000 0101             if (scan_speed >= tmp_speed)    scan_speed -= dividor_speed;
0009a0 91e0 0214 	LDS  R30,_tmp_speed
0009a2 91f0 0215 	LDS  R31,_tmp_speed+1
0009a4 91a0 0212 	LDS  R26,_scan_speed
0009a6 91b0 0213 	LDS  R27,_scan_speed+1
0009a8 17ae      	CP   R26,R30
0009a9 07bf      	CPC  R27,R31
0009aa f058      	BRLO _0x121
0009ab 91e0 0212 	LDS  R30,_scan_speed
0009ad 91f0 0213 	LDS  R31,_scan_speed+1
0009af 5fe4      	SUBI R30,LOW(500)
0009b0 40f1      	SBCI R31,HIGH(500)
0009b1 93e0 0212 	STS  _scan_speed,R30
0009b3 93f0 0213 	STS  _scan_speed+1,R31
                 ; 0000 0102             else
0009b5 c00a      	RJMP _0x122
                 _0x121:
                 ; 0000 0103             {
                 ; 0000 0104                 scan_speed = tmp_speed;
0009b6 91e0 0214 	LDS  R30,_tmp_speed
0009b8 91f0 0215 	LDS  R31,_tmp_speed+1
0009ba 93e0 0212 	STS  _scan_speed,R30
0009bc 93f0 0213 	STS  _scan_speed+1,R31
                 ; 0000 0105                 ch_speed = 0;
0009be 94e8      	CLT
0009bf f823      	BLD  R2,3
                 ; 0000 0106 //                out = 0x10;
                 ; 0000 0107             }
                 _0x122:
                 ; 0000 0108     }
                 _0x120:
                 ; 0000 0109     switch (scan_mode)
                 _0x11C:
0009c0 91e0 020f 	LDS  R30,_scan_mode
0009c2 e0f0      	LDI  R31,0
                 ; 0000 010A     {
                 ; 0000 010B         case 1:
0009c3 30e1      	CPI  R30,LOW(0x1)
0009c4 e0a0      	LDI  R26,HIGH(0x1)
0009c5 07fa      	CPC  R31,R26
0009c6 f4d9      	BRNE _0x126
                 ; 0000 010C             out = v1.out[scan_cnt];
                +
0009c7 e5e5     +LDI R30 , LOW ( 2 * _v1 + ( 1 ) )
0009c8 e0f0     +LDI R31 , HIGH ( 2 * _v1 + ( 1 ) )
                 	__POINTW1FN _v1,1
0009c9 01df      	MOVW R26,R30
0009ca 91e0 0211 	LDS  R30,_scan_cnt
0009cc e0f0      	LDI  R31,0
0009cd 0fea      	ADD  R30,R26
0009ce 1ffb      	ADC  R31,R27
0009cf 9004      	LPM  R0,Z
0009d0 9200 0216 	STS  _out,R0
                 ; 0000 010D             scan_cnt++;
0009d2 91e0 0211 	LDS  R30,_scan_cnt
0009d4 5fef      	SUBI R30,-LOW(1)
0009d5 93e0 0211 	STS  _scan_cnt,R30
                 ; 0000 010E             if (scan_cnt >= v1.length)
0009d7 e5e4      	LDI  R30,LOW(_v1*2)
0009d8 e0f0      	LDI  R31,HIGH(_v1*2)
0009d9 91e4      	LPM  R30,Z
0009da 91a0 0211 	LDS  R26,_scan_cnt
0009dc 17ae      	CP   R26,R30
0009dd f018      	BRLO _0x127
                 ; 0000 010F                 scan_cnt = 0;
0009de e0e0      	LDI  R30,LOW(0)
0009df 93e0 0211 	STS  _scan_cnt,R30
                 ; 0000 0110             break;
                 _0x127:
0009e1 c05a      	RJMP _0x125
                 ; 0000 0111         case 2:
                 _0x126:
0009e2 30e2      	CPI  R30,LOW(0x2)
0009e3 e0a0      	LDI  R26,HIGH(0x2)
0009e4 07fa      	CPC  R31,R26
0009e5 f4d9      	BRNE _0x128
                 ; 0000 0112             out = v2.out[scan_cnt];
                +
0009e6 e7e5     +LDI R30 , LOW ( 2 * _v2 + ( 1 ) )
0009e7 e0f0     +LDI R31 , HIGH ( 2 * _v2 + ( 1 ) )
                 	__POINTW1FN _v2,1
0009e8 01df      	MOVW R26,R30
0009e9 91e0 0211 	LDS  R30,_scan_cnt
0009eb e0f0      	LDI  R31,0
0009ec 0fea      	ADD  R30,R26
0009ed 1ffb      	ADC  R31,R27
0009ee 9004      	LPM  R0,Z
0009ef 9200 0216 	STS  _out,R0
                 ; 0000 0113             scan_cnt++;
0009f1 91e0 0211 	LDS  R30,_scan_cnt
0009f3 5fef      	SUBI R30,-LOW(1)
0009f4 93e0 0211 	STS  _scan_cnt,R30
                 ; 0000 0114             if (scan_cnt >= v2.length)
0009f6 e7e4      	LDI  R30,LOW(_v2*2)
0009f7 e0f0      	LDI  R31,HIGH(_v2*2)
0009f8 91e4      	LPM  R30,Z
0009f9 91a0 0211 	LDS  R26,_scan_cnt
0009fb 17ae      	CP   R26,R30
0009fc f018      	BRLO _0x129
                 ; 0000 0115                 scan_cnt = 0;
0009fd e0e0      	LDI  R30,LOW(0)
0009fe 93e0 0211 	STS  _scan_cnt,R30
                 ; 0000 0116             break;
                 _0x129:
000a00 c03b      	RJMP _0x125
                 ; 0000 0117         case 3:
                 _0x128:
000a01 30e3      	CPI  R30,LOW(0x3)
000a02 e0a0      	LDI  R26,HIGH(0x3)
000a03 07fa      	CPC  R31,R26
000a04 f4d9      	BRNE _0x12A
                 ; 0000 0118             out = v3.out[scan_cnt];
                +
000a05 e9e5     +LDI R30 , LOW ( 2 * _v3 + ( 1 ) )
000a06 e0f0     +LDI R31 , HIGH ( 2 * _v3 + ( 1 ) )
                 	__POINTW1FN _v3,1
000a07 01df      	MOVW R26,R30
000a08 91e0 0211 	LDS  R30,_scan_cnt
000a0a e0f0      	LDI  R31,0
000a0b 0fea      	ADD  R30,R26
000a0c 1ffb      	ADC  R31,R27
000a0d 9004      	LPM  R0,Z
000a0e 9200 0216 	STS  _out,R0
                 ; 0000 0119             scan_cnt++;
000a10 91e0 0211 	LDS  R30,_scan_cnt
000a12 5fef      	SUBI R30,-LOW(1)
000a13 93e0 0211 	STS  _scan_cnt,R30
                 ; 0000 011A             if (scan_cnt >= v3.length)
000a15 e9e4      	LDI  R30,LOW(_v3*2)
000a16 e0f0      	LDI  R31,HIGH(_v3*2)
000a17 91e4      	LPM  R30,Z
000a18 91a0 0211 	LDS  R26,_scan_cnt
000a1a 17ae      	CP   R26,R30
000a1b f018      	BRLO _0x12B
                 ; 0000 011B                 scan_cnt = 0;
000a1c e0e0      	LDI  R30,LOW(0)
000a1d 93e0 0211 	STS  _scan_cnt,R30
                 ; 0000 011C             break;
                 _0x12B:
000a1f c01c      	RJMP _0x125
                 ; 0000 011D         case 4:
                 _0x12A:
000a20 30e4      	CPI  R30,LOW(0x4)
000a21 e0a0      	LDI  R26,HIGH(0x4)
000a22 07fa      	CPC  R31,R26
000a23 f4c1      	BRNE _0x125
                 ; 0000 011E             out = patt.out[scan_cnt];
                +
000a24 e3ac     +LDI R26 , LOW ( _patt + ( 1 ) )
000a25 e0b2     +LDI R27 , HIGH ( _patt + ( 1 ) )
                 	__POINTW2MN _patt,1
000a26 91e0 0211 	LDS  R30,_scan_cnt
000a28 e0f0      	LDI  R31,0
000a29 0fae      	ADD  R26,R30
000a2a 1fbf      	ADC  R27,R31
000a2b 91ec      	LD   R30,X
000a2c 93e0 0216 	STS  _out,R30
                 ; 0000 011F             scan_cnt++;
000a2e 91e0 0211 	LDS  R30,_scan_cnt
000a30 5fef      	SUBI R30,-LOW(1)
000a31 93e0 0211 	STS  _scan_cnt,R30
                 ; 0000 0120             if (scan_cnt >= patt.length)
000a33 91e0 023b 	LDS  R30,_patt
000a35 91a0 0211 	LDS  R26,_scan_cnt
000a37 17ae      	CP   R26,R30
000a38 f018      	BRLO _0x12D
                 ; 0000 0121                 scan_cnt = 0;
000a39 e0e0      	LDI  R30,LOW(0)
000a3a 93e0 0211 	STS  _scan_cnt,R30
                 ; 0000 0122             break;
                 _0x12D:
                 ; 0000 0123     }
                 _0x125:
                 ; 0000 0124     }
                 ; 0000 0125     else
000a3c c01e      	RJMP _0x12E
                 _0x11B:
                 ; 0000 0126     if (e_preview)
000a3d fe26      	SBRS R2,6
000a3e c019      	RJMP _0x12F
                 ; 0000 0127     {
                 ; 0000 0128         out = e_patt.out[scan_cnt];
                +
000a3f e1ad     +LDI R26 , LOW ( _e_patt + ( 1 ) )
000a40 e0b2     +LDI R27 , HIGH ( _e_patt + ( 1 ) )
                 	__POINTW2MN _e_patt,1
000a41 91e0 0211 	LDS  R30,_scan_cnt
000a43 e0f0      	LDI  R31,0
000a44 0fae      	ADD  R26,R30
000a45 1fbf      	ADC  R27,R31
000a46 91ec      	LD   R30,X
000a47 93e0 0216 	STS  _out,R30
                 ; 0000 0129         scan_cnt++;
000a49 91e0 0211 	LDS  R30,_scan_cnt
000a4b 5fef      	SUBI R30,-LOW(1)
000a4c 93e0 0211 	STS  _scan_cnt,R30
                 ; 0000 012A         if (scan_cnt >= e_patt.length)
000a4e 91e0 021c 	LDS  R30,_e_patt
000a50 91a0 0211 	LDS  R26,_scan_cnt
000a52 17ae      	CP   R26,R30
000a53 f018      	BRLO _0x130
                 ; 0000 012B             scan_cnt = 0;
000a54 e0e0      	LDI  R30,LOW(0)
000a55 93e0 0211 	STS  _scan_cnt,R30
                 ; 0000 012C     }
                 _0x130:
                 ; 0000 012D     else
000a57 c003      	RJMP _0x131
                 _0x12F:
                 ; 0000 012E         out = 0x10;
000a58 e1e0      	LDI  R30,LOW(16)
000a59 93e0 0216 	STS  _out,R30
                 ; 0000 012F 
                 ; 0000 0130     out  = out  & 0x0F;
                 _0x131:
                 _0x12E:
000a5b 91e0 0216 	LDS  R30,_out
000a5d 70ef      	ANDI R30,LOW(0xF)
000a5e 93e0 0216 	STS  _out,R30
                 ; 0000 0131 //    out2 = out2 & 0x0F;
                 ; 0000 0132 
                 ; 0000 0133     PORTB = 0b00000011 + (out << 4);
000a60 95e2      	SWAP R30
000a61 7fe0      	ANDI R30,0xF0
000a62 5fed      	SUBI R30,-LOW(3)
000a63 bbe8      	OUT  0x18,R30
                 ; 0000 0134     if (multiplexor)
000a64 fe22      	SBRS R2,2
000a65 c00b      	RJMP _0x132
                 ; 0000 0135     {
                 ; 0000 0136         shift_out((out << 4) + out2);
000a66 91e0 0216 	LDS  R30,_out
000a68 95e2      	SWAP R30
000a69 7fe0      	ANDI R30,0xF0
000a6a 91a0 0217 	LDS  R26,_out2
000a6c 0fea      	ADD  R30,R26
000a6d 93ea      	ST   -Y,R30
000a6e da70      	RCALL _shift_out
                 ; 0000 0137         multiplexor = 0;
000a6f 94e8      	CLT
000a70 c00a      	RJMP _0x169
                 ; 0000 0138     }
                 ; 0000 0139     else
                 _0x132:
                 ; 0000 013A     {
                 ; 0000 013B         shift_out((out2 << 4) + out);
000a71 91e0 0217 	LDS  R30,_out2
000a73 95e2      	SWAP R30
000a74 7fe0      	ANDI R30,0xF0
000a75 91a0 0216 	LDS  R26,_out
000a77 0fea      	ADD  R30,R26
000a78 93ea      	ST   -Y,R30
000a79 da65      	RCALL _shift_out
                 ; 0000 013C         multiplexor = 1;
000a7a 9468      	SET
                 _0x169:
000a7b f822      	BLD  R2,2
                 ; 0000 013D     }
                 ; 0000 013E //    PORTD = out << 3;
                 ; 0000 013F     out2 = out;
000a7c 91e0 0216 	LDS  R30,_out
000a7e 93e0 0217 	STS  _out2,R30
                 ; 0000 0140 
                 ; 0000 0141     TCNT1 = 0;
000a80 e0e0      	LDI  R30,LOW(0)
000a81 e0f0      	LDI  R31,HIGH(0)
000a82 bdfd      	OUT  0x2C+1,R31
000a83 bdec      	OUT  0x2C,R30
                 ; 0000 0142 }
000a84 91e9      	LD   R30,Y+
000a85 bfef      	OUT  SREG,R30
000a86 91f9      	LD   R31,Y+
000a87 91e9      	LD   R30,Y+
000a88 91b9      	LD   R27,Y+
000a89 91a9      	LD   R26,Y+
000a8a 9199      	LD   R25,Y+
000a8b 9189      	LD   R24,Y+
000a8c 9179      	LD   R23,Y+
000a8d 9169      	LD   R22,Y+
000a8e 90f9      	LD   R15,Y+
000a8f 9019      	LD   R1,Y+
000a90 9009      	LD   R0,Y+
000a91 9518      	RETI
                 ;
                 ;// Declare your global variables here
                 ;
                 ;void main(void)
                 ; 0000 0147 {
                 _main:
                 ; 0000 0148 // Declare your local variables here
                 ; 0000 0149 unsigned char i = 0;
                 ; 0000 014A 
                 ; 0000 014B // Declare your local variables here
                 ; 0000 014C 
                 ; 0000 014D // Input/Output Ports initialization
                 ; 0000 014E // Port A initialization
                 ; 0000 014F // Func7=In Func6=In Func5=In Func4=In Func3=In Func2=In Func1=In Func0=In
                 ; 0000 0150 // State7=T State6=T State5=T State4=T State3=T State2=T State1=T State0=T
                 ; 0000 0151 PORTA=0xC0;
                 ;	i -> R17
000a92 e010      	LDI  R17,0
000a93 ece0      	LDI  R30,LOW(192)
000a94 bbeb      	OUT  0x1B,R30
                 ; 0000 0152 DDRA=0xC0;
000a95 bbea      	OUT  0x1A,R30
                 ; 0000 0153 
                 ; 0000 0154 // Port B initialization
                 ; 0000 0155 // Func7=In Func6=In Func5=In Func4=In Func3=In Func2=In Func1=In Func0=In
                 ; 0000 0156 // State7=T State6=T State5=T State4=T State3=T State2=T State1=T State0=T
                 ; 0000 0157 PORTB=0x03;
000a96 e0e3      	LDI  R30,LOW(3)
000a97 bbe8      	OUT  0x18,R30
                 ; 0000 0158 DDRB=0xF0;
000a98 efe0      	LDI  R30,LOW(240)
000a99 bbe7      	OUT  0x17,R30
                 ; 0000 0159 
                 ; 0000 015A // Port C initialization
                 ; 0000 015B // Func7=In Func6=In Func5=In Func4=In Func3=In Func2=In Func1=In Func0=In
                 ; 0000 015C // State7=T State6=T State5=T State4=T State3=T State2=T State1=T State0=T
                 ; 0000 015D PORTC=0x00;
000a9a e0e0      	LDI  R30,LOW(0)
000a9b bbe5      	OUT  0x15,R30
                 ; 0000 015E DDRC=0x00;
000a9c bbe4      	OUT  0x14,R30
                 ; 0000 015F 
                 ; 0000 0160 // Port D initialization
                 ; 0000 0161 // Func7=In Func6=In Func5=In Func4=In Func3=In Func2=In Func1=In Func0=In
                 ; 0000 0162 // State7=T State6=T State5=T State4=T State3=T State2=T State1=T State0=T
                 ; 0000 0163 PORTD=0x07;
000a9d e0e7      	LDI  R30,LOW(7)
000a9e bbe2      	OUT  0x12,R30
                 ; 0000 0164 DDRD=0xFB;
000a9f efeb      	LDI  R30,LOW(251)
000aa0 bbe1      	OUT  0x11,R30
                 ; 0000 0165 
                 ; 0000 0166 // Timer/Counter 0 initialization
                 ; 0000 0167 // Clock source: System Clock
                 ; 0000 0168 // Clock value: 187,500 kHz
                 ; 0000 0169 // Mode: Normal top=FFh
                 ; 0000 016A // OC0 output: Disconnected
                 ; 0000 016B TCCR0=0x02;
000aa1 e0e2      	LDI  R30,LOW(2)
000aa2 bfe3      	OUT  0x33,R30
                 ; 0000 016C TCNT0=0x00;
000aa3 e0e0      	LDI  R30,LOW(0)
000aa4 bfe2      	OUT  0x32,R30
                 ; 0000 016D OCR0=0x00;
000aa5 bfec      	OUT  0x3C,R30
                 ; 0000 016E 
                 ; 0000 016F // Timer/Counter 1 initialization
                 ; 0000 0170 // Clock source: System Clock
                 ; 0000 0171 // Clock value: 46,875 kHz
                 ; 0000 0172 // Mode: CTC top=ICR1
                 ; 0000 0173 // OC1A output: Discon.
                 ; 0000 0174 // OC1B output: Discon.
                 ; 0000 0175 // Noise Canceler: Off
                 ; 0000 0176 // Input Capture on Falling Edge
                 ; 0000 0177 // Timer1 Overflow Interrupt: On
                 ; 0000 0178 // Input Capture Interrupt: Off
                 ; 0000 0179 // Compare A Match Interrupt: Off
                 ; 0000 017A // Compare B Match Interrupt: Off
                 ; 0000 017B TCCR1A=0x00;
000aa6 bdef      	OUT  0x2F,R30
                 ; 0000 017C TCCR1B=0x09;
000aa7 e0e9      	LDI  R30,LOW(9)
000aa8 bdee      	OUT  0x2E,R30
                 ; 0000 017D TCNT1H=0x00;
000aa9 e0e0      	LDI  R30,LOW(0)
000aaa bded      	OUT  0x2D,R30
                 ; 0000 017E TCNT1L=0x00;
000aab bdec      	OUT  0x2C,R30
                 ; 0000 017F ICR1H=0x00;
000aac bde7      	OUT  0x27,R30
                 ; 0000 0180 ICR1L=0x00;
000aad bde6      	OUT  0x26,R30
                 ; 0000 0181 //OCR1AH=0xFF;
                 ; 0000 0182 //OCR1AL=0xFF;
                 ; 0000 0183 OCR1A = scan_speed;
000aae 91e0 0212 	LDS  R30,_scan_speed
000ab0 91f0 0213 	LDS  R31,_scan_speed+1
000ab2 bdfb      	OUT  0x2A+1,R31
000ab3 bdea      	OUT  0x2A,R30
                 ; 0000 0184 OCR1BH=0x00;
000ab4 e0e0      	LDI  R30,LOW(0)
000ab5 bde9      	OUT  0x29,R30
                 ; 0000 0185 OCR1BL=0x00;
000ab6 bde8      	OUT  0x28,R30
                 ; 0000 0186 
                 ; 0000 0187 // Timer/Counter 2 initialization
                 ; 0000 0188 // Clock source: System Clock
                 ; 0000 0189 // Clock value: 1500,000 kHz
                 ; 0000 018A // Mode: Phase correct PWM top=FFh
                 ; 0000 018B // OC2 output: Non-Inverted PWM
                 ; 0000 018C ASSR=0x00;
000ab7 bde2      	OUT  0x22,R30
                 ; 0000 018D TCCR2=0x61;
000ab8 e6e1      	LDI  R30,LOW(97)
000ab9 bde5      	OUT  0x25,R30
                 ; 0000 018E TCNT2=0x00;
000aba e0e0      	LDI  R30,LOW(0)
000abb bde4      	OUT  0x24,R30
                 ; 0000 018F OCR2=0xFF;
000abc efef      	LDI  R30,LOW(255)
000abd bde3      	OUT  0x23,R30
                 ; 0000 0190 
                 ; 0000 0191 // External Interrupt(s) initialization
                 ; 0000 0192 // INT0: On
                 ; 0000 0193 // INT0 Mode: Falling Edge
                 ; 0000 0194 // INT1: Off
                 ; 0000 0195 // INT2: Off
                 ; 0000 0196 GICR|=0x40;
000abe b7eb      	IN   R30,0x3B
000abf 64e0      	ORI  R30,0x40
000ac0 bfeb      	OUT  0x3B,R30
                 ; 0000 0197 MCUCR=0x02;
000ac1 e0e2      	LDI  R30,LOW(2)
000ac2 bfe5      	OUT  0x35,R30
                 ; 0000 0198 MCUCSR=0x00;
000ac3 e0e0      	LDI  R30,LOW(0)
000ac4 bfe4      	OUT  0x34,R30
                 ; 0000 0199 GIFR=0x40;
000ac5 e4e0      	LDI  R30,LOW(64)
000ac6 bfea      	OUT  0x3A,R30
                 ; 0000 019A 
                 ; 0000 019B // Timer(s)/Counter(s) Interrupt(s) initialization
                 ; 0000 019C TIMSK=0x11;
000ac7 e1e1      	LDI  R30,LOW(17)
000ac8 bfe9      	OUT  0x39,R30
                 ; 0000 019D 
                 ; 0000 019E // Analog Comparator initialization
                 ; 0000 019F // Analog Comparator: Off
                 ; 0000 01A0 // Analog Comparator Input Capture by Timer/Counter 1: Off
                 ; 0000 01A1 ACSR=0x80;
000ac9 e8e0      	LDI  R30,LOW(128)
000aca b9e8      	OUT  0x8,R30
                 ; 0000 01A2 SFIOR=0x00;
000acb e0e0      	LDI  R30,LOW(0)
000acc bfe0      	OUT  0x30,R30
                 ; 0000 01A3 
                 ; 0000 01A4 // LCD module initialization
                 ; 0000 01A5 lcd_init(16);
000acd e1e0      	LDI  R30,LOW(16)
000ace 93ea      	ST   -Y,R30
000acf 940e 0c7f 	CALL _lcd_init
                 ; 0000 01A6 
                 ; 0000 01A7 for (i = 0; i < 8; i++)
000ad1 e010      	LDI  R17,LOW(0)
                 _0x135:
000ad2 3018      	CPI  R17,8
000ad3 f468      	BRSH _0x136
                 ; 0000 01A8 {
                 ; 0000 01A9     lcd_write_byte(0x40 + i, arrow_left[i]);
000ad4 2fe1      	MOV  R30,R17
000ad5 5ce0      	SUBI R30,-LOW(64)
000ad6 93ea      	ST   -Y,R30
000ad7 2fe1      	MOV  R30,R17
000ad8 e0f0      	LDI  R31,0
000ad9 54ec      	SUBI R30,LOW(-_arrow_left*2)
000ada 4fff      	SBCI R31,HIGH(-_arrow_left*2)
000adb 91e4      	LPM  R30,Z
000adc 93ea      	ST   -Y,R30
000add 940e 0bef 	CALL _lcd_write_byte
                 ; 0000 01AA }
000adf 5f1f      	SUBI R17,-1
000ae0 cff1      	RJMP _0x135
                 _0x136:
                 ; 0000 01AB 
                 ; 0000 01AC for (i = 0; i < 8; i++)
000ae1 e010      	LDI  R17,LOW(0)
                 _0x138:
000ae2 3018      	CPI  R17,8
000ae3 f468      	BRSH _0x139
                 ; 0000 01AD {
                 ; 0000 01AE     lcd_write_byte(0x40 + 0x08 + i, arrow_right[i]);
000ae4 2fe1      	MOV  R30,R17
000ae5 5be8      	SUBI R30,-LOW(72)
000ae6 93ea      	ST   -Y,R30
000ae7 2fe1      	MOV  R30,R17
000ae8 e0f0      	LDI  R31,0
000ae9 54e4      	SUBI R30,LOW(-_arrow_right*2)
000aea 4fff      	SBCI R31,HIGH(-_arrow_right*2)
000aeb 91e4      	LPM  R30,Z
000aec 93ea      	ST   -Y,R30
000aed 940e 0bef 	CALL _lcd_write_byte
                 ; 0000 01AF }
000aef 5f1f      	SUBI R17,-1
000af0 cff1      	RJMP _0x138
                 _0x139:
                 ; 0000 01B0 
                 ; 0000 01B1 // I2C Bus initialization
                 ; 0000 01B2 i2c_init();
000af1 940e 0cc0 	CALL _i2c_init
                 ; 0000 01B3 
                 ; 0000 01B4 lcd_clear();
000af3 940e 0c21 	CALL _lcd_clear
                 ; 0000 01B5 lcd_puts(" Hammond Organ  ");
                +
000af5 eae2     +LDI R30 , LOW ( _0x13A + ( 0 ) )
000af6 e0f1     +LDI R31 , HIGH ( _0x13A + ( 0 ) )
                 	__POINTW1MN _0x13A,0
000af7 93fa      	ST   -Y,R31
000af8 93ea      	ST   -Y,R30
000af9 940e 0c60 	CALL _lcd_puts
                 ; 0000 01B6 delay_ms(1000);
000afb eee8      	LDI  R30,LOW(1000)
000afc e0f3      	LDI  R31,HIGH(1000)
000afd 93fa      	ST   -Y,R31
000afe 93ea      	ST   -Y,R30
000aff 940e 0d12 	CALL _delay_ms
                 ; 0000 01B7 
                 ; 0000 01B8 lcd_gotoxy(0, 1);
000b01 e0e0      	LDI  R30,LOW(0)
000b02 93ea      	ST   -Y,R30
000b03 e0e1      	LDI  R30,LOW(1)
000b04 93ea      	ST   -Y,R30
000b05 940e 0c0d 	CALL _lcd_gotoxy
                 ; 0000 01B9 lcd_puts(" Vibrato/Chorus ");
                +
000b07 ebe3     +LDI R30 , LOW ( _0x13A + ( 17 ) )
000b08 e0f1     +LDI R31 , HIGH ( _0x13A + ( 17 ) )
                 	__POINTW1MN _0x13A,17
000b09 93fa      	ST   -Y,R31
000b0a 93ea      	ST   -Y,R30
000b0b 940e 0c60 	CALL _lcd_puts
                 ; 0000 01BA delay_ms(1000);
000b0d eee8      	LDI  R30,LOW(1000)
000b0e e0f3      	LDI  R31,HIGH(1000)
000b0f 93fa      	ST   -Y,R31
000b10 93ea      	ST   -Y,R30
000b11 940e 0d12 	CALL _delay_ms
                 ; 0000 01BB 
                 ; 0000 01BC lcd_gotoxy(0, 1);
000b13 e0e0      	LDI  R30,LOW(0)
000b14 93ea      	ST   -Y,R30
000b15 e0e1      	LDI  R30,LOW(1)
000b16 93ea      	ST   -Y,R30
000b17 940e 0c0d 	CALL _lcd_gotoxy
                 ; 0000 01BD lcd_puts("Digital Scanner ");
                +
000b19 ece4     +LDI R30 , LOW ( _0x13A + ( 34 ) )
000b1a e0f1     +LDI R31 , HIGH ( _0x13A + ( 34 ) )
                 	__POINTW1MN _0x13A,34
000b1b 93fa      	ST   -Y,R31
000b1c 93ea      	ST   -Y,R30
000b1d 940e 0c60 	CALL _lcd_puts
                 ; 0000 01BE delay_ms(1000);
000b1f eee8      	LDI  R30,LOW(1000)
000b20 e0f3      	LDI  R31,HIGH(1000)
000b21 93fa      	ST   -Y,R31
000b22 93ea      	ST   -Y,R30
000b23 940e 0d12 	CALL _delay_ms
                 ; 0000 01BF 
                 ; 0000 01C0 lcd_gotoxy(0, 1);
000b25 e0e0      	LDI  R30,LOW(0)
000b26 93ea      	ST   -Y,R30
000b27 e0e1      	LDI  R30,LOW(1)
000b28 93ea      	ST   -Y,R30
000b29 940e 0c0d 	CALL _lcd_gotoxy
                 ; 0000 01C1 lcd_puts("      by        ");
                +
000b2b ede5     +LDI R30 , LOW ( _0x13A + ( 51 ) )
000b2c e0f1     +LDI R31 , HIGH ( _0x13A + ( 51 ) )
                 	__POINTW1MN _0x13A,51
000b2d 93fa      	ST   -Y,R31
000b2e 93ea      	ST   -Y,R30
000b2f 940e 0c60 	CALL _lcd_puts
                 ; 0000 01C2 delay_ms(700);
000b31 ebec      	LDI  R30,LOW(700)
000b32 e0f2      	LDI  R31,HIGH(700)
000b33 93fa      	ST   -Y,R31
000b34 93ea      	ST   -Y,R30
000b35 940e 0d12 	CALL _delay_ms
                 ; 0000 01C3 
                 ; 0000 01C4 lcd_gotoxy(0, 1);
000b37 e0e0      	LDI  R30,LOW(0)
000b38 93ea      	ST   -Y,R30
000b39 e0e1      	LDI  R30,LOW(1)
000b3a 93ea      	ST   -Y,R30
000b3b 940e 0c0d 	CALL _lcd_gotoxy
                 ; 0000 01C5 lcd_puts(" Rinon Ninqueon ");
                +
000b3d eee6     +LDI R30 , LOW ( _0x13A + ( 68 ) )
000b3e e0f1     +LDI R31 , HIGH ( _0x13A + ( 68 ) )
                 	__POINTW1MN _0x13A,68
000b3f 93fa      	ST   -Y,R31
000b40 93ea      	ST   -Y,R30
000b41 940e 0c60 	CALL _lcd_puts
                 ; 0000 01C6 delay_ms(1000);
000b43 eee8      	LDI  R30,LOW(1000)
000b44 e0f3      	LDI  R31,HIGH(1000)
000b45 93fa      	ST   -Y,R31
000b46 93ea      	ST   -Y,R30
000b47 940e 0d12 	CALL _delay_ms
                 ; 0000 01C7 
                 ; 0000 01C8 delay_ms(100);
000b49 e6e4      	LDI  R30,LOW(100)
000b4a e0f0      	LDI  R31,HIGH(100)
000b4b 93fa      	ST   -Y,R31
000b4c 93ea      	ST   -Y,R30
000b4d 940e 0d12 	CALL _delay_ms
                 ; 0000 01C9 
                 ; 0000 01CA if (init_check())
000b4f 940e 033e 	CALL _init_check
000b51 30e0      	CPI  R30,0
000b52 f011      	BREQ _0x13B
                 ; 0000 01CB     zero_init();
000b53 940e 035c 	CALL _zero_init
                 ; 0000 01CC 
                 ; 0000 01CD #asm("sei")
                 _0x13B:
000b55 9478      	sei
                 ; 0000 01CE 
                 ; 0000 01CF patt = read_pattern(current_pattern);
000b56 927a      	ST   -Y,R7
000b57 940e 02b5 	CALL _read_pattern
000b59 e3ab      	LDI  R26,LOW(_patt)
000b5a e0b2      	LDI  R27,HIGH(_patt)
000b5b 940e 0d3c 	CALL __COPYMML
000b5d be1f      	OUT  SREG,R1
                 ; 0000 01D0 
                 ; 0000 01D1 lcd_out();
000b5e d9a6      	RCALL _lcd_out
                 ; 0000 01D2 
                 ; 0000 01D3 while (1)
                 _0x13C:
                 ; 0000 01D4     {
                 ; 0000 01D5         if (dir1 != 1)               //îáðàáîòêà ýíêîäåðà 1
000b5f 91a0 0204 	LDS  R26,_dir1
000b61 30a1      	CPI  R26,LOW(0x1)
000b62 f131      	BREQ _0x13F
                 ; 0000 01D6         {
                 ; 0000 01D7             if (dir1 == 0)
000b63 91e0 0204 	LDS  R30,_dir1
000b65 30e0      	CPI  R30,0
000b66 f479      	BRNE _0x140
                 ; 0000 01D8             {
                 ; 0000 01D9                 if (dir_cnt1 == 0)
000b67 91e0 0206 	LDS  R30,_dir_cnt1
000b69 30e0      	CPI  R30,0
000b6a f439      	BRNE _0x141
                 ; 0000 01DA                 {
                 ; 0000 01DB                     dir_cnt1 = _dir_cnt;
000b6b e0e4      	LDI  R30,LOW(4)
000b6c 93e0 0206 	STS  _dir_cnt1,R30
                 ; 0000 01DC                     ClrBit(PORTA, 0b01000000);
000b6e 98de      	CBI  0x1B,6
                 ; 0000 01DD                     enc1 = 0;
000b6f e0e0      	LDI  R30,LOW(0)
000b70 93e0 020c 	STS  _enc1,R30
                 ; 0000 01DE                 }
                 ; 0000 01DF                 dir_cnt1--;
                 _0x141:
000b72 91e0 0206 	LDS  R30,_dir_cnt1
000b74 50e1      	SUBI R30,LOW(1)
000b75 c00e      	RJMP _0x16A
                 ; 0000 01E0             }
                 ; 0000 01E1             else
                 _0x140:
                 ; 0000 01E2             {
                 ; 0000 01E3                 if (dir_cnt1 == _dir_cnt2)
000b76 91a0 0206 	LDS  R26,_dir_cnt1
000b78 30a8      	CPI  R26,LOW(0x8)
000b79 f439      	BRNE _0x143
                 ; 0000 01E4                 {
                 ; 0000 01E5                     dir_cnt1 = _dir_cnt;
000b7a e0e4      	LDI  R30,LOW(4)
000b7b 93e0 0206 	STS  _dir_cnt1,R30
                 ; 0000 01E6                     ClrBit(PORTA, 0b01000000);
000b7d 98de      	CBI  0x1B,6
                 ; 0000 01E7                     enc1 = 1;
000b7e e0e1      	LDI  R30,LOW(1)
000b7f 93e0 020c 	STS  _enc1,R30
                 ; 0000 01E8                 }
                 ; 0000 01E9                 dir_cnt1++;
                 _0x143:
000b81 91e0 0206 	LDS  R30,_dir_cnt1
000b83 5fef      	SUBI R30,-LOW(1)
                 _0x16A:
000b84 93e0 0206 	STS  _dir_cnt1,R30
                 ; 0000 01EA             }
                 ; 0000 01EB 
                 ; 0000 01EC             dir1 = 1;
000b86 e0e1      	LDI  R30,LOW(1)
000b87 93e0 0204 	STS  _dir1,R30
                 ; 0000 01ED         }
                 ; 0000 01EE 
                 ; 0000 01EF         if (dir2 != 1)               //îáðàáîòêà ýíêîäåðà 2
                 _0x13F:
000b89 91a0 0205 	LDS  R26,_dir2
000b8b 30a1      	CPI  R26,LOW(0x1)
000b8c f131      	BREQ _0x144
                 ; 0000 01F0         {
                 ; 0000 01F1             if (dir2 == 0)
000b8d 91e0 0205 	LDS  R30,_dir2
000b8f 30e0      	CPI  R30,0
000b90 f479      	BRNE _0x145
                 ; 0000 01F2             {
                 ; 0000 01F3                 if (dir_cnt2 == 0)
000b91 91e0 0207 	LDS  R30,_dir_cnt2
000b93 30e0      	CPI  R30,0
000b94 f439      	BRNE _0x146
                 ; 0000 01F4                 {
                 ; 0000 01F5                     dir_cnt2 = _dir_cnt;
000b95 e0e4      	LDI  R30,LOW(4)
000b96 93e0 0207 	STS  _dir_cnt2,R30
                 ; 0000 01F6                     ClrBit(PORTA, 0b10000000);
000b98 98df      	CBI  0x1B,7
                 ; 0000 01F7                     enc2 = 0;
000b99 e0e0      	LDI  R30,LOW(0)
000b9a 93e0 020d 	STS  _enc2,R30
                 ; 0000 01F8                 }
                 ; 0000 01F9                 dir_cnt2--;
                 _0x146:
000b9c 91e0 0207 	LDS  R30,_dir_cnt2
000b9e 50e1      	SUBI R30,LOW(1)
000b9f c00e      	RJMP _0x16B
                 ; 0000 01FA             }
                 ; 0000 01FB             else
                 _0x145:
                 ; 0000 01FC             {
                 ; 0000 01FD                 if (dir_cnt2 == _dir_cnt2)
000ba0 91a0 0207 	LDS  R26,_dir_cnt2
000ba2 30a8      	CPI  R26,LOW(0x8)
000ba3 f439      	BRNE _0x148
                 ; 0000 01FE                 {
                 ; 0000 01FF                     dir_cnt2 = _dir_cnt;
000ba4 e0e4      	LDI  R30,LOW(4)
000ba5 93e0 0207 	STS  _dir_cnt2,R30
                 ; 0000 0200                     ClrBit(PORTA, 0b10000000);
000ba7 98df      	CBI  0x1B,7
                 ; 0000 0201                     enc2 = 1;
000ba8 e0e1      	LDI  R30,LOW(1)
000ba9 93e0 020d 	STS  _enc2,R30
                 ; 0000 0202                 }
                 ; 0000 0203                 dir_cnt2++;
                 _0x148:
000bab 91e0 0207 	LDS  R30,_dir_cnt2
000bad 5fef      	SUBI R30,-LOW(1)
                 _0x16B:
000bae 93e0 0207 	STS  _dir_cnt2,R30
                 ; 0000 0204             }
                 ; 0000 0205 
                 ; 0000 0206             dir2 = 1;
000bb0 e0e1      	LDI  R30,LOW(1)
000bb1 93e0 0205 	STS  _dir2,R30
                 ; 0000 0207         }
                 ; 0000 0208         if (TestBit(PINC, 0x08))
                 _0x144:
000bb3 9b9b      	SBIS 0x13,3
000bb4 c006      	RJMP _0x149
                 ; 0000 0209         {
                 ; 0000 020A             if (!chorus)
000bb5 fc21      	SBRC R2,1
000bb6 c003      	RJMP _0x14A
                 ; 0000 020B             {
                 ; 0000 020C                 chorus = 1;
000bb7 9468      	SET
000bb8 f821      	BLD  R2,1
                 ; 0000 020D                 lcd_out();
000bb9 d94b      	RCALL _lcd_out
                 ; 0000 020E             }
                 ; 0000 020F         }
                 _0x14A:
                 ; 0000 0210         else
000bba c005      	RJMP _0x14B
                 _0x149:
                 ; 0000 0211             if (chorus)
000bbb fe21      	SBRS R2,1
000bbc c003      	RJMP _0x14C
                 ; 0000 0212             {
                 ; 0000 0213                 chorus = 0;
000bbd 94e8      	CLT
000bbe f821      	BLD  R2,1
                 ; 0000 0214                 lcd_out();
000bbf d945      	RCALL _lcd_out
                 ; 0000 0215             }
                 ; 0000 0216     };
                 _0x14C:
                 _0x14B:
000bc0 cf9e      	RJMP _0x13C
                 ; 0000 0217 }
                 _0x14D:
000bc1 cfff      	RJMP _0x14D
                 
                 	.DSEG
                 _0x13A:
0001a2           	.BYTE 0x55
                     .equ __lcd_direction=__lcd_port-1
                     .equ __lcd_pin=__lcd_port-2
                     .equ __lcd_rs=0
                     .equ __lcd_rd=1
                     .equ __lcd_enable=2
                     .equ __lcd_busy_flag=7
                 
                 	.DSEG
                 
                 	.CSEG
                 __lcd_delay_G100:
000bc2 e0ff          ldi   r31,15
                 __lcd_delay0:
000bc3 95fa          dec   r31
000bc4 f7f1          brne  __lcd_delay0
000bc5 9508      	RET
                 __lcd_ready:
000bc6 b3a4          in    r26,__lcd_direction
000bc7 70af          andi  r26,0xf                 ;set as input
000bc8 bba4          out   __lcd_direction,r26
000bc9 9aa9          sbi   __lcd_port,__lcd_rd     ;RD=1
000bca 98a8          cbi   __lcd_port,__lcd_rs     ;RS=0
                 __lcd_busy:
000bcb dff6      	RCALL __lcd_delay_G100
000bcc 9aaa          sbi   __lcd_port,__lcd_enable ;EN=1
000bcd dff4      	RCALL __lcd_delay_G100
000bce b3a3          in    r26,__lcd_pin
000bcf 98aa          cbi   __lcd_port,__lcd_enable ;EN=0
000bd0 dff1      	RCALL __lcd_delay_G100
000bd1 9aaa          sbi   __lcd_port,__lcd_enable ;EN=1
000bd2 dfef      	RCALL __lcd_delay_G100
000bd3 98aa          cbi   __lcd_port,__lcd_enable ;EN=0
000bd4 fda7          sbrc  r26,__lcd_busy_flag
000bd5 cff5          rjmp  __lcd_busy
000bd6 9508      	RET
                 __lcd_write_nibble_G100:
000bd7 7fa0          andi  r26,0xf0
000bd8 2bab          or    r26,r27
000bd9 bba5          out   __lcd_port,r26          ;write
000bda 9aaa          sbi   __lcd_port,__lcd_enable ;EN=1
000bdb 940e 0bc2 	CALL __lcd_delay_G100
000bdd 98aa          cbi   __lcd_port,__lcd_enable ;EN=0
000bde 940e 0bc2 	CALL __lcd_delay_G100
000be0 9508      	RET
                 __lcd_write_data:
000be1 98a9          cbi  __lcd_port,__lcd_rd 	  ;RD=0
000be2 b3a4          in    r26,__lcd_direction
000be3 6fa7          ori   r26,0xf0 | (1<<__lcd_rs) | (1<<__lcd_rd) | (1<<__lcd_enable) ;set as output
000be4 bba4          out   __lcd_direction,r26
000be5 b3b5          in    r27,__lcd_port
000be6 70bf          andi  r27,0xf
000be7 81a8          ld    r26,y
000be8 dfee      	RCALL __lcd_write_nibble_G100
000be9 81a8          ld    r26,y
000bea 95a2          swap  r26
000beb dfeb      	RCALL __lcd_write_nibble_G100
000bec 9aa9          sbi   __lcd_port,__lcd_rd     ;RD=1
000bed 940c 0cbe 	JMP  _0x2080001
                 _lcd_write_byte:
000bef 940e 0bc6 	CALL __lcd_ready
000bf1 81e9      	LDD  R30,Y+1
000bf2 93ea      	ST   -Y,R30
000bf3 dfed      	RCALL __lcd_write_data
000bf4 940e 0bc6 	CALL __lcd_ready
000bf6 9aa8          sbi   __lcd_port,__lcd_rs     ;RS=1
000bf7 81e8      	LD   R30,Y
000bf8 93ea      	ST   -Y,R30
000bf9 dfe7      	RCALL __lcd_write_data
000bfa c024      	RJMP _0x2080002
                 __lcd_read_nibble_G100:
000bfb 9aaa          sbi   __lcd_port,__lcd_enable ;EN=1
000bfc 940e 0bc2 	CALL __lcd_delay_G100
000bfe b3e3          in    r30,__lcd_pin           ;read
000bff 98aa          cbi   __lcd_port,__lcd_enable ;EN=0
000c00 940e 0bc2 	CALL __lcd_delay_G100
000c02 7fe0          andi  r30,0xf0
000c03 9508      	RET
                 _lcd_read_byte0_G100:
000c04 940e 0bc2 	CALL __lcd_delay_G100
000c06 dff4      	RCALL __lcd_read_nibble_G100
000c07 2fae          mov   r26,r30
000c08 dff2      	RCALL __lcd_read_nibble_G100
000c09 98a9          cbi   __lcd_port,__lcd_rd     ;RD=0
000c0a 95e2          swap  r30
000c0b 2bea          or    r30,r26
000c0c 9508      	RET
                 _lcd_gotoxy:
000c0d 940e 0bc6 	CALL __lcd_ready
000c0f 81e8      	LD   R30,Y
000c10 e0f0      	LDI  R31,0
000c11 5ae6      	SUBI R30,LOW(-__base_y_G100)
000c12 4ffd      	SBCI R31,HIGH(-__base_y_G100)
000c13 81e0      	LD   R30,Z
000c14 81a9      	LDD  R26,Y+1
000c15 0fea      	ADD  R30,R26
000c16 93ea      	ST   -Y,R30
000c17 940e 0be1 	CALL __lcd_write_data
000c19 81e9      	LDD  R30,Y+1
000c1a 93e0 025e 	STS  __lcd_x,R30
000c1c 81e8      	LD   R30,Y
000c1d 93e0 025f 	STS  __lcd_y,R30
                 _0x2080002:
000c1f 9622      	ADIW R28,2
000c20 9508      	RET
                 _lcd_clear:
000c21 940e 0bc6 	CALL __lcd_ready
000c23 e0e2      	LDI  R30,LOW(2)
000c24 93ea      	ST   -Y,R30
000c25 940e 0be1 	CALL __lcd_write_data
000c27 940e 0bc6 	CALL __lcd_ready
000c29 e0ec      	LDI  R30,LOW(12)
000c2a 93ea      	ST   -Y,R30
000c2b 940e 0be1 	CALL __lcd_write_data
000c2d 940e 0bc6 	CALL __lcd_ready
000c2f e0e1      	LDI  R30,LOW(1)
000c30 93ea      	ST   -Y,R30
000c31 940e 0be1 	CALL __lcd_write_data
000c33 e0e0      	LDI  R30,LOW(0)
000c34 93e0 025f 	STS  __lcd_y,R30
000c36 93e0 025e 	STS  __lcd_x,R30
000c38 9508      	RET
                 _lcd_putchar:
000c39 93ef          push r30
000c3a 93ff          push r31
000c3b 81a8          ld   r26,y
000c3c 9468          set
000c3d 30aa          cpi  r26,10
000c3e f039          breq __lcd_putchar1
000c3f 94e8          clt
000c40 91e0 0260 	LDS  R30,__lcd_maxx
000c42 91a0 025e 	LDS  R26,__lcd_x
000c44 17ae      	CP   R26,R30
000c45 f060      	BRLO _0x2000004
                 	__lcd_putchar1:
000c46 91e0 025f 	LDS  R30,__lcd_y
000c48 5fef      	SUBI R30,-LOW(1)
000c49 93e0 025f 	STS  __lcd_y,R30
000c4b e0e0      	LDI  R30,LOW(0)
000c4c 93ea      	ST   -Y,R30
000c4d 91e0 025f 	LDS  R30,__lcd_y
000c4f 93ea      	ST   -Y,R30
000c50 dfbc      	RCALL _lcd_gotoxy
000c51 f056      	brts __lcd_putchar0
                 _0x2000004:
000c52 91e0 025e 	LDS  R30,__lcd_x
000c54 5fef      	SUBI R30,-LOW(1)
000c55 93e0 025e 	STS  __lcd_x,R30
000c57 df6e          rcall __lcd_ready
000c58 9aa8          sbi  __lcd_port,__lcd_rs ;RS=1
000c59 81a8          ld   r26,y
000c5a 93aa          st   -y,r26
000c5b df85          rcall __lcd_write_data
                 __lcd_putchar0:
000c5c 91ff          pop  r31
000c5d 91ef          pop  r30
000c5e 940c 0cbe 	JMP  _0x2080001
                 _lcd_puts:
000c60 931a      	ST   -Y,R17
                 _0x2000005:
000c61 81a9      	LDD  R26,Y+1
000c62 81ba      	LDD  R27,Y+1+1
000c63 91ed      	LD   R30,X+
000c64 83a9      	STD  Y+1,R26
000c65 83ba      	STD  Y+1+1,R27
000c66 2f1e      	MOV  R17,R30
000c67 30e0      	CPI  R30,0
000c68 f019      	BREQ _0x2000007
000c69 931a      	ST   -Y,R17
000c6a dfce      	RCALL _lcd_putchar
000c6b cff5      	RJMP _0x2000005
                 _0x2000007:
000c6c 8118      	LDD  R17,Y+0
000c6d 9623      	ADIW R28,3
000c6e 9508      	RET
                 __long_delay_G100:
000c6f 27aa          clr   r26
000c70 27bb          clr   r27
                 __long_delay0:
000c71 9711          sbiw  r26,1         ;2 cycles
000c72 f7f1          brne  __long_delay0 ;2 cycles
000c73 9508      	RET
                 __lcd_init_write_G100:
000c74 98a9          cbi  __lcd_port,__lcd_rd 	  ;RD=0
000c75 b3a4          in    r26,__lcd_direction
000c76 6fa7          ori   r26,0xf7                ;set as output
000c77 bba4          out   __lcd_direction,r26
000c78 b3b5          in    r27,__lcd_port
000c79 70bf          andi  r27,0xf
000c7a 81a8          ld    r26,y
000c7b 940e 0bd7 	CALL __lcd_write_nibble_G100
000c7d 9aa9          sbi   __lcd_port,__lcd_rd     ;RD=1
000c7e c03f      	RJMP _0x2080001
                 _lcd_init:
000c7f 98aa          cbi   __lcd_port,__lcd_enable ;EN=0
000c80 98a8          cbi   __lcd_port,__lcd_rs     ;RS=0
000c81 81e8      	LD   R30,Y
000c82 93e0 0260 	STS  __lcd_maxx,R30
000c84 58e0      	SUBI R30,-LOW(128)
                +
000c85 93e0 025c+STS __base_y_G100 + ( 2 ) , R30
                 	__PUTB1MN __base_y_G100,2
000c87 81e8      	LD   R30,Y
000c88 54e0      	SUBI R30,-LOW(192)
                +
000c89 93e0 025d+STS __base_y_G100 + ( 3 ) , R30
                 	__PUTB1MN __base_y_G100,3
000c8b dfe3      	RCALL __long_delay_G100
000c8c e3e0      	LDI  R30,LOW(48)
000c8d 93ea      	ST   -Y,R30
000c8e dfe5      	RCALL __lcd_init_write_G100
000c8f dfdf      	RCALL __long_delay_G100
000c90 e3e0      	LDI  R30,LOW(48)
000c91 93ea      	ST   -Y,R30
000c92 dfe1      	RCALL __lcd_init_write_G100
000c93 dfdb      	RCALL __long_delay_G100
000c94 e3e0      	LDI  R30,LOW(48)
000c95 93ea      	ST   -Y,R30
000c96 dfdd      	RCALL __lcd_init_write_G100
000c97 dfd7      	RCALL __long_delay_G100
000c98 e2e0      	LDI  R30,LOW(32)
000c99 93ea      	ST   -Y,R30
000c9a dfd9      	RCALL __lcd_init_write_G100
000c9b dfd3      	RCALL __long_delay_G100
000c9c e2e8      	LDI  R30,LOW(40)
000c9d 93ea      	ST   -Y,R30
000c9e 940e 0be1 	CALL __lcd_write_data
000ca0 dfce      	RCALL __long_delay_G100
000ca1 e0e4      	LDI  R30,LOW(4)
000ca2 93ea      	ST   -Y,R30
000ca3 940e 0be1 	CALL __lcd_write_data
000ca5 dfc9      	RCALL __long_delay_G100
000ca6 e8e5      	LDI  R30,LOW(133)
000ca7 93ea      	ST   -Y,R30
000ca8 940e 0be1 	CALL __lcd_write_data
000caa dfc4      	RCALL __long_delay_G100
000cab b3a4          in    r26,__lcd_direction
000cac 70af          andi  r26,0xf                 ;set as input
000cad bba4          out   __lcd_direction,r26
000cae 9aa9          sbi   __lcd_port,__lcd_rd     ;RD=1
000caf 940e 0c04 	CALL _lcd_read_byte0_G100
000cb1 30e5      	CPI  R30,LOW(0x5)
000cb2 f011      	BREQ _0x200000B
000cb3 e0e0      	LDI  R30,LOW(0)
000cb4 c009      	RJMP _0x2080001
                 _0x200000B:
000cb5 940e 0bc6 	CALL __lcd_ready
000cb7 e0e6      	LDI  R30,LOW(6)
000cb8 93ea      	ST   -Y,R30
000cb9 940e 0be1 	CALL __lcd_write_data
000cbb 940e 0c21 	CALL _lcd_clear
000cbd e0e1      	LDI  R30,LOW(1)
                 _0x2080001:
000cbe 9621      	ADIW R28,1
000cbf 9508      	RET
                 	#ifndef __SLEEP_DEFINED__
                 	#endif
                 
                 	.CSEG
                 
                 	.CSEG
                 
                 	.CSEG
                 
                 	.DSEG
                 _j:
0001f7           	.BYTE 0x1
                 _t_preset:
0001f8           	.BYTE 0x7
                 _t_item:
0001ff           	.BYTE 0x5
                 _dir1:
000204           	.BYTE 0x1
                 _dir2:
000205           	.BYTE 0x1
                 _dir_cnt1:
000206           	.BYTE 0x1
                 _dir_cnt2:
000207           	.BYTE 0x1
                 _e11:
000208           	.BYTE 0x1
                 _e12:
000209           	.BYTE 0x1
                 _e21:
00020a           	.BYTE 0x1
                 _e22:
00020b           	.BYTE 0x1
                 _enc1:
00020c           	.BYTE 0x1
                 _enc2:
00020d           	.BYTE 0x1
                 _pwm_cnt:
00020e           	.BYTE 0x1
                 _scan_mode:
00020f           	.BYTE 0x1
                 _last_mode:
000210           	.BYTE 0x1
                 _scan_cnt:
000211           	.BYTE 0x1
                 _scan_speed:
000212           	.BYTE 0x2
                 _tmp_speed:
000214           	.BYTE 0x2
                 _out:
000216           	.BYTE 0x1
                 _out2:
000217           	.BYTE 0x1
                 _e_preset:
000218           	.BYTE 0x1
                 _e_item:
000219           	.BYTE 0x1
                 _e_out:
00021a           	.BYTE 0x1
                 _e_mode:
00021b           	.BYTE 0x1
                 _e_patt:
00021c           	.BYTE 0x1F
                 _patt:
00023b           	.BYTE 0x1F
                 __base_y_G100:
00025a           	.BYTE 0x4
                 __lcd_x:
00025e           	.BYTE 0x1
                 __lcd_y:
00025f           	.BYTE 0x1
                 __lcd_maxx:
000260           	.BYTE 0x1
                 
                 	.CSEG
                 
                 	.CSEG
                 	.equ __i2c_dir=__i2c_port-1
                 	.equ __i2c_pin=__i2c_port-2
                 _i2c_init:
000cc0 9891      	cbi  __i2c_port,__scl_bit
000cc1 9890      	cbi  __i2c_port,__sda_bit
000cc2 9a89      	sbi  __i2c_dir,__scl_bit
000cc3 9888      	cbi  __i2c_dir,__sda_bit
000cc4 c015      	rjmp __i2c_delay2
                 _i2c_start:
000cc5 9888      	cbi  __i2c_dir,__sda_bit
000cc6 9889      	cbi  __i2c_dir,__scl_bit
000cc7 27ee      	clr  r30
000cc8 0000      	nop
000cc9 9b80      	sbis __i2c_pin,__sda_bit
000cca 9508      	ret
000ccb 9b81      	sbis __i2c_pin,__scl_bit
000ccc 9508      	ret
000ccd d004      	rcall __i2c_delay1
000cce 9a88      	sbi  __i2c_dir,__sda_bit
000ccf d002      	rcall __i2c_delay1
000cd0 9a89      	sbi  __i2c_dir,__scl_bit
000cd1 e0e1      	ldi  r30,1
                 __i2c_delay1:
000cd2 e164      	ldi  r22,20
000cd3 c007      	rjmp __i2c_delay2l
                 _i2c_stop:
000cd4 9a88      	sbi  __i2c_dir,__sda_bit
000cd5 9a89      	sbi  __i2c_dir,__scl_bit
000cd6 d003      	rcall __i2c_delay2
000cd7 9889      	cbi  __i2c_dir,__scl_bit
000cd8 dff9      	rcall __i2c_delay1
000cd9 9888      	cbi  __i2c_dir,__sda_bit
                 __i2c_delay2:
000cda e268      	ldi  r22,40
                 __i2c_delay2l:
000cdb 956a      	dec  r22
000cdc f7f1      	brne __i2c_delay2l
000cdd 9508      	ret
                 _i2c_read:
000cde e078      	ldi  r23,8
                 __i2c_read0:
000cdf 9889      	cbi  __i2c_dir,__scl_bit
000ce0 dff1      	rcall __i2c_delay1
                 __i2c_read3:
000ce1 9b81      	sbis __i2c_pin,__scl_bit
000ce2 cffe      	rjmp __i2c_read3
000ce3 dfee      	rcall __i2c_delay1
000ce4 9488      	clc
000ce5 9980      	sbic __i2c_pin,__sda_bit
000ce6 9408      	sec
000ce7 9a89      	sbi  __i2c_dir,__scl_bit
000ce8 dff1      	rcall __i2c_delay2
000ce9 1fee      	rol  r30
000cea 957a      	dec  r23
000ceb f799      	brne __i2c_read0
000cec 9179      	ld   r23,y+
000ced 2377      	tst  r23
000cee f411      	brne __i2c_read1
000cef 9888      	cbi  __i2c_dir,__sda_bit
000cf0 c001      	rjmp __i2c_read2
                 __i2c_read1:
000cf1 9a88      	sbi  __i2c_dir,__sda_bit
                 __i2c_read2:
000cf2 dfdf      	rcall __i2c_delay1
000cf3 9889      	cbi  __i2c_dir,__scl_bit
000cf4 dfe5      	rcall __i2c_delay2
000cf5 9a89      	sbi  __i2c_dir,__scl_bit
000cf6 dfdb      	rcall __i2c_delay1
000cf7 9888      	cbi  __i2c_dir,__sda_bit
000cf8 cfd9      	rjmp __i2c_delay1
                 
                 _i2c_write:
000cf9 91e9      	ld   r30,y+
000cfa e078      	ldi  r23,8
                 __i2c_write0:
000cfb 0fee      	lsl  r30
000cfc f410      	brcc __i2c_write1
000cfd 9888      	cbi  __i2c_dir,__sda_bit
000cfe c001      	rjmp __i2c_write2
                 __i2c_write1:
000cff 9a88      	sbi  __i2c_dir,__sda_bit
                 __i2c_write2:
000d00 dfd9      	rcall __i2c_delay2
000d01 9889      	cbi  __i2c_dir,__scl_bit
000d02 dfcf      	rcall __i2c_delay1
                 __i2c_write3:
000d03 9b81      	sbis __i2c_pin,__scl_bit
000d04 cffe      	rjmp __i2c_write3
000d05 dfcc      	rcall __i2c_delay1
000d06 9a89      	sbi  __i2c_dir,__scl_bit
000d07 957a      	dec  r23
000d08 f791      	brne __i2c_write0
000d09 9888      	cbi  __i2c_dir,__sda_bit
000d0a dfc7      	rcall __i2c_delay1
000d0b 9889      	cbi  __i2c_dir,__scl_bit
000d0c dfcd      	rcall __i2c_delay2
000d0d e0e1      	ldi  r30,1
000d0e 9980      	sbic __i2c_pin,__sda_bit
000d0f 27ee      	clr  r30
000d10 9a89      	sbi  __i2c_dir,__scl_bit
000d11 9508      	ret
                 
                 _delay_ms:
000d12 91e9      	ld   r30,y+
000d13 91f9      	ld   r31,y+
000d14 9630      	adiw r30,0
000d15 f039      	breq __delay_ms1
                 __delay_ms0:
                +
000d16 eb88     +LDI R24 , LOW ( 0xBB8 )
000d17 e09b     +LDI R25 , HIGH ( 0xBB8 )
                +__DELAY_USW_LOOP :
000d18 9701     +SBIW R24 , 1
000d19 f7f1     +BRNE __DELAY_USW_LOOP
                 	__DELAY_USW 0xBB8
000d1a 95a8      	wdr
000d1b 9731      	sbiw r30,1
000d1c f7c9      	brne __delay_ms0
                 __delay_ms1:
000d1d 9508      	ret
                 
                 __DIVW21U:
000d1e 2400      	CLR  R0
000d1f 2411      	CLR  R1
000d20 e190      	LDI  R25,16
                 __DIVW21U1:
000d21 0faa      	LSL  R26
000d22 1fbb      	ROL  R27
000d23 1c00      	ROL  R0
000d24 1c11      	ROL  R1
000d25 1a0e      	SUB  R0,R30
000d26 0a1f      	SBC  R1,R31
000d27 f418      	BRCC __DIVW21U2
000d28 0e0e      	ADD  R0,R30
000d29 1e1f      	ADC  R1,R31
000d2a c001      	RJMP __DIVW21U3
                 __DIVW21U2:
000d2b 60a1      	SBR  R26,1
                 __DIVW21U3:
000d2c 959a      	DEC  R25
000d2d f799      	BRNE __DIVW21U1
000d2e 01fd      	MOVW R30,R26
000d2f 01d0      	MOVW R26,R0
000d30 9508      	RET
                 
                 __MODW21U:
000d31 dfec      	RCALL __DIVW21U
000d32 01fd      	MOVW R30,R26
000d33 9508      	RET
                 
                 __PUTPARL:
000d34 27bb      	CLR  R27
                 __PUTPAR:
000d35 0fea      	ADD  R30,R26
000d36 1ffb      	ADC  R31,R27
                 __PUTPAR0:
000d37 9002      	LD   R0,-Z
000d38 920a      	ST   -Y,R0
000d39 9711      	SBIW R26,1
000d3a f7e1      	BRNE __PUTPAR0
000d3b 9508      	RET
                 
                 __COPYMML:
000d3c 2799      	CLR  R25
                 __COPYMM:
000d3d 93ef      	PUSH R30
000d3e 93ff      	PUSH R31
                 __COPYMM0:
000d3f 9161      	LD   R22,Z+
000d40 936d      	ST   X+,R22
000d41 9701      	SBIW R24,1
000d42 f7e1      	BRNE __COPYMM0
000d43 91ff      	POP  R31
000d44 91ef      	POP  R30
000d45 9508      	RET
                 
                 ;END OF CODE MARKER
                 __END_OF_CODE:


RESOURCE USE INFORMATION
------------------------

Notice:
The register and instruction counts are symbol table hit counts,
and hence implicitly used resources are not counted, eg, the
'lpm' instruction without operands implicitly uses r0 and z,
none of which are counted.

x,y,z are separate entities in the symbol table and are
counted separately from r26..r31 here.

.dseg memory usage only counts static data declared with .byte

ATmega16 register use summary:
r0 :  36 r1 :  20 r2 :  41 r3 :   3 r4 :   2 r5 :   5 r6 :   4 r7 :  10 
r8 :   6 r9 :  10 r10:   4 r11:  21 r12:  17 r13:   7 r14:   6 r15:   9 
r16:   0 r17:  39 r18:   0 r19:   0 r20:   0 r21:   0 r22:  16 r23:  15 
r24:  29 r25:  19 r26: 339 r27:  90 r28:  16 r29:   1 r30:1139 r31: 257 
x  :  28 y  : 433 z  :  20 
Registers used: 30 out of 35 (85.7%)

ATmega16 instruction use summary:
.lds  :   0 .lds.l:   0 .sts  :   0 .sts.l:   0 adc   :  33 add   :  40 
adiw  :  20 and   :  16 andi  :  28 asr   :   0 bclr  :   0 bld   :  15 
brbc  :   0 brbs  :   0 brcc  :   2 brcs  :   0 break :   0 breq  :  41 
brge  :   0 brhc  :   0 brhs  :   0 brid  :   0 brie  :   0 brlo  :  34 
brlt  :   0 brmi  :   0 brne  :  87 brpl  :   0 brsh  :  24 brtc  :   0 
brts  :   1 brvc  :   0 brvs  :   0 bset  :   0 bst   :   0 call  : 143 
cbi   :  33 cbr   :   0 clc   :   1 clh   :   0 cli   :   4 cln   :   0 
clr   :  16 cls   :   0 clt   :   9 clv   :   0 clz   :   0 com   :   0 
cp    :  28 cpc   :  22 cpi   : 116 cpse  :   0 dec   :   7 des   :   0 
eor   :   0 fmul  :   0 fmuls :   0 fmulsu:   0 icall :   0 ijmp  :   0 
in    :  15 inc   :   3 jmp   :  30 ld    : 115 ldd   :  50 ldi   : 483 
lds   : 194 lpm   :  27 lsl   :   5 lsr   :   0 mov   :  61 movw  :  23 
mul   :   0 muls  :   2 mulsu :   0 neg   :   0 nop   :   1 or    :   2 
ori   :   6 out   :  64 pop   :   6 push  :   6 rcall :  84 ret   :  30 
reti  :   6 rjmp  : 155 rol   :   4 ror   :   0 sbc   :   2 sbci  :   7 
sbi   :  26 sbic  :   9 sbis  :   6 sbiw  :  17 sbr   :   1 sbrc  :  10 
sbrs  :  17 sec   :   1 seh   :   0 sei   :   3 sen   :   0 ser   :   0 
ses   :   0 set   :   9 sev   :   0 sez   :   0 sleep :   0 spm   :   0 
st    : 290 std   :   9 sts   : 112 sub   :   2 subi  :  59 swap  :   5 
tst   :   2 wdr   :   1 
Instructions used: 65 out of 116 (56.0%)

ATmega16 memory use summary [bytes]:
Segment   Begin    End      Code   Data   Used    Size   Use%
---------------------------------------------------------------
[.cseg] 0x000000 0x001a8c   6298    498   6796   16384  41.5%
[.dseg] 0x000060 0x000261      0    257    257    1024  25.1%
[.eseg] 0x000000 0x000000      0      0      0     512   0.0%

Assembly complete, 0 errors, 23 warnings
